Signature: 45434C52
Application Name: template
Processor: nios2
Operating System: Win32
Programming Model: Gnu gcc 3.x
Compiler Version: 1.5.0.12021
Compiler Flags: 0001 (debug)
Eclr Version: 2.0
Meta Size: 18320
Code Size: 12792
File Size: 31244
Meta Signature: 5AF54FA7
Code Signature: 0A66AA2C
Retain Signature: 00000000
Data Size: 1612
Retain Size: 0
Native Library Signature: 00000000
Data Base Address: 00000000
Code Base Address: 00000000
Image created at: Mon Nov 26 16:36:48 2018

MetaBegin:
Metainfo: flags=00, id=10, intsize=4

Assembly: mscorlib version=2.2.0.0,native metasize=132
Type: System.Object class,size=4,staticsize=0 align=4,vslot=0,islot=0,metasize=148
Method: System.String ToString() native,virtual metaoffset=000000C8,vslot=0
Method: System.Boolean Equals(System.Object) native,virtual metaoffset=000000DC,vslot=1
Method: System.Int32 GetHashCode() native,virtual metaoffset=000000F0,vslot=2
Method: void Finalize() native,virtual metaoffset=00000108,vslot=3
Method: void .ctor() native,constructor metaoffset=0000011C

Type: System.ValueType:System.Object valuetype,size=0 align=1,vslot=0,islot=0,metasize=56
Method: void .ctor() native,constructor,unused metaoffset=00000154

Type: System.Void:System.ValueType valuetype,size=0 align=1,vslot=0,islot=0,metasize=36

Type: System.Boolean:System.ValueType valuetype,size=1 align=1,vslot=0,islot=0,metasize=36

Type: System.Char:System.ValueType valuetype,size=2 align=2,vslot=0,islot=0,metasize=36

Type: System.SByte:System.ValueType valuetype,size=1 align=1,vslot=0,islot=0,metasize=36

Type: System.Byte:System.ValueType valuetype,size=1 align=1,vslot=0,islot=0,metasize=36

Type: System.Int16:System.ValueType valuetype,size=2 align=2,vslot=0,islot=0,metasize=36

Type: System.UInt16:System.ValueType valuetype,size=2 align=2,vslot=0,islot=0,metasize=36

Type: System.Int32:System.ValueType valuetype,size=4 align=4,vslot=0,islot=0,metasize=36

Type: System.UInt32:System.ValueType valuetype,size=4 align=4,vslot=0,islot=0,metasize=36

Type: System.Int64:System.ValueType valuetype,size=8 align=8,vslot=0,islot=0,metasize=36

Type: System.UInt64:System.ValueType valuetype,size=8 align=8,vslot=0,islot=0,metasize=36

Type: System.Single:System.ValueType valuetype,size=4 align=4,vslot=0,islot=0,metasize=36

Type: System.Double:System.ValueType valuetype,size=8 align=8,vslot=0,islot=0,metasize=36

Type: System.IntPtr:System.ValueType valuetype,size=4 align=4,vslot=0,islot=0,metasize=76
Method: void .ctor(System.Void*) managed,constructor,unused metaoffset=00000360
Method: System.Void* ToPointer() managed,unused metaoffset=00000370

Type: System.UIntPtr:System.ValueType valuetype,size=4 align=4,vslot=0,islot=0,metasize=36

Type: System.Ptr:System.ValueType valuetype,size=4 align=4,vslot=0,islot=0,metasize=32

Type: System.Enum:System.ValueType valuetype,size=0 align=1,vslot=0,islot=0,metasize=52
Method: void .ctor() native,constructor,unused metaoffset=000003EC

Type: System.String:System.Object class,size=8,staticsize=0 align=4,vslot=0,islot=0,metasize=132
Method: System.String Concat(System.String,System.String) native,static,unused metaoffset=00000428
Method: System.Char get_Chars(System.Int32) native metaoffset=00000440
Method: System.Int32 get_Length() native metaoffset=00000458
Method: void .ctor() native,constructor,unused metaoffset=00000470

Type: System.Array:System.Object class,size=4,staticsize=0 align=4,vslot=0,islot=0,metasize=100
Method: void Copy(System.Array,System.Array,System.Int32) managed,static,unused metaoffset=000004A8
Method: void Copy(System.Array,System.Int32,System.Array,System.Int32,System.Int32) native,static,unused metaoffset=000004BC
Method: void .ctor() native,constructor,unused metaoffset=000004D4

Type: System.MulticastDelegate:System.Object class,size=12,staticsize=0 align=4,vslot=0,islot=0,metasize=100
Method: void .ctor(System.Object,System.IntPtr) native,constructor metaoffset=00000514
Field: System.Object _o size=4,offset=4
Field: System.IntPtr _m size=4,offset=8

Type: System.DateTime:System.ValueType valuetype,size=14 align=2,vslot=0,islot=0,metasize=324
Method: System.Int32 get_Year() managed,unused metaoffset=0000055C
Method: System.Int32 get_Month() managed,unused metaoffset=00000570
Method: System.Int32 get_Day() managed,unused metaoffset=00000584
Method: System.Int32 get_Hour() managed,unused metaoffset=00000598
Method: System.Int32 get_Minute() managed,unused metaoffset=000005AC
Method: System.Int32 get_Second() managed,unused metaoffset=000005C4
Method: System.Int32 get_Millisecond() managed,unused metaoffset=000005DC
Field: System.Int16 year size=2,offset=0
Field: System.Int16 month size=2,offset=2
Field: System.Int16 day size=2,offset=4
Field: System.Int16 hour size=2,offset=6
Field: System.Int16 minute size=2,offset=8
Field: System.Int16 second size=2,offset=10
Field: System.Int16 millisecond size=2,offset=12

Type: System.Threading.ThreadState:System.Enum valuetype,size=2 align=2,vslot=0,islot=0,metasize=264
Field: System.UInt16 value__ size=2,offset=0
Field: System.Threading.ThreadState Running size=2,literal=00000000
Field: System.Threading.ThreadState StopRequested size=2,literal=00000001
Field: System.Threading.ThreadState SuspendRequested size=2,literal=00000002
Field: System.Threading.ThreadState Background size=2,literal=00000004
Field: System.Threading.ThreadState Unstarted size=2,literal=00000008
Field: System.Threading.ThreadState Stopped size=2,literal=00000010
Field: System.Threading.ThreadState WaitSleepJoin size=2,literal=00000020
Field: System.Threading.ThreadState Suspended size=2,literal=00000040
Field: System.Threading.ThreadState AbortRequested size=2,literal=00000080
Field: System.Threading.ThreadState Aborted size=2,literal=00000100

Type: System.Threading.ThreadPriority:System.Enum valuetype,size=2 align=2,vslot=0,islot=0,metasize=156
Field: System.UInt16 value__ size=2,offset=0
Field: System.Threading.ThreadPriority Lowest size=2,literal=00000000
Field: System.Threading.ThreadPriority BelowNormal size=2,literal=00000001
Field: System.Threading.ThreadPriority Normal size=2,literal=00000002
Field: System.Threading.ThreadPriority AboveNormal size=2,literal=00000003
Field: System.Threading.ThreadPriority Highest size=2,literal=00000004

Type: System.Threading.ThreadStart:System.MulticastDelegate class,size=12,staticsize=0 align=4,vslot=4,islot=0,metasize=80
Method: void .ctor(System.Object,System.IntPtr) native,constructor,unused metaoffset=00000690
Method: void Invoke() managed,virtual metaoffset=000006A4,codesize=124,vslot=4

Type: System.Threading.Thread:System.Object class,size=20,staticsize=8 align=4,vslot=9,islot=0,metasize=472
Method: void .ctor(System.Threading.ThreadStart) managed,constructor metaoffset=000006F8,codesize=152
Method: void Start() native metaoffset=00000708
Method: void Resume() native,unused metaoffset=00000718
Method: void Suspend() native,unused metaoffset=00000728
Method: void Abort() native,unused metaoffset=00000738
Method: System.Threading.ThreadPriority get_Priority() managed,unused metaoffset=00000748
Method: void set_Priority(System.Threading.ThreadPriority) native metaoffset=00000760
Method: System.Threading.ThreadState get_ThreadState() managed,unused metaoffset=00000778
Method: System.String get_Name() managed,unused metaoffset=00000794
Method: void set_Name(System.String) managed,unused metaoffset=000007A8
Method: System.Threading.Thread get_CurrentThread() managed,static,unused metaoffset=000007BC
Method: void Sleep(System.Int32) native,static,unused metaoffset=000007D8
Method: void Finalize() native,virtual metaoffset=000007E8,vslot=3
Method: System.Boolean create(System.Threading.ThreadStart) native metaoffset=000007FC
Method: System.Boolean isCurrent() native,unused metaoffset=00000810
Field: System.Threading.Thread m_next size=4,offset=4
Field: System.String m_name size=4,offset=8
Field: System.UInt16 m_state size=2,offset=12
Field: System.UInt16 m_prio size=2,offset=14
Field: System.Threading.ThreadStart m_start size=4,offset=16
Field: System.Threading.Thread s_t0 size=4,static,offset=4

Type: System.Threading.WaitHandle:System.Object class,size=4,staticsize=0 align=4,vslot=0,islot=0,metasize=80
Method: void .ctor() native,constructor,unused metaoffset=00000850
Method: System.Boolean WaitOne() native metaoffset=00000860

Type: System.Threading.EventResetMode:System.Enum valuetype,size=2 align=2,vslot=0,islot=0,metasize=108
Field: System.UInt16 value__ size=2,offset=0
Field: System.Threading.EventResetMode AutoReset size=2,literal=00000000
Field: System.Threading.EventResetMode ManualReset size=2,literal=00000001

Type: System.Threading.EventWaitHandle:System.Threading.WaitHandle class,size=4,staticsize=0 align=4,vslot=13,islot=0,metasize=124
Method: void .ctor(System.Boolean,System.Threading.EventResetMode) native,constructor metaoffset=000008D4
Method: System.Boolean Set() native metaoffset=000008E8
Method: System.Boolean Reset() native,unused metaoffset=000008F8
Method: void Finalize() native,virtual metaoffset=00000908,vslot=3

Type: System.Threading.AutoResetEvent:System.Threading.EventWaitHandle class,size=4,staticsize=0 align=4,vslot=13,islot=0,metasize=64
Method: void .ctor(System.Boolean) managed,constructor metaoffset=0000094C,codesize=84


Assembly: eclrlib version=2.1.0.0,native metasize=72
Type: Eclr.Helper:System.Object class,size=4,staticsize=0 align=4,vslot=0,islot=0,metasize=712
Method: System.Object isinst(System.Object,System.UIntPtr) native,static,unused metaoffset=00000CBC
Method: System.Object castclass(System.Object,System.UIntPtr) native,static metaoffset=00000CD4
Method: void Copy(System.Void*,System.Void*,System.UInt32) native,static,unused metaoffset=00000CEC
Method: void Move(System.Void*,System.Void*,System.UInt32) native,static,unused metaoffset=00000D00
Method: void Clear(System.Void*,System.UIntPtr) native,static metaoffset=00000D14
Method: void div0() native,static metaoffset=00000D28
Method: void bound() native,static metaoffset=00000D38
Method: void stkchk(System.UInt16) native,static,unused metaoffset=00000D48
Method: System.UInt16 GetType(System.UIntPtr) native,static,unused metaoffset=00000D5C
Method: void printf(System.Byte*) native,static,unused metaoffset=00000D70
Method: void ItoS(System.Byte*,System.Byte*,System.Int32) native,static,unused metaoffset=00000D84
Method: void ItoS(System.Byte*,System.Byte*,System.Int64) native,static,unused metaoffset=00000D98
Method: void ItoS(System.Byte*,System.Byte*,System.Int32,System.UInt16) native,static,unused metaoffset=00000DAC
Method: void ItoS(System.Byte*,System.Byte*,System.Int64,System.UInt16) native,static,unused metaoffset=00000DC4
Method: void FtoS(System.Byte*,System.Byte*,System.Single) native,static,unused metaoffset=00000DDC
Method: void DtoS(System.Byte*,System.Byte*,System.Double) native,static,unused metaoffset=00000DF0
Method: System.Int32 StoI(System.Byte*,System.Byte*) native,static,unused metaoffset=00000E04
Method: System.Single StoF(System.Byte*,System.Byte*) native,static,unused metaoffset=00000E18
Method: System.Double StoD(System.Byte*,System.Byte*) native,static,unused metaoffset=00000E2C
Method: System.Single StoF2(System.Byte*,System.Boolean*) native,static,unused metaoffset=00000E40
Method: System.Double StoD2(System.Byte*,System.Boolean*) native,static,unused metaoffset=00000E54
Method: System.Byte* StrStr(System.Byte*,System.Byte*) native,static,unused metaoffset=00000E68
Method: System.Boolean IsLittleEndian() native,static,unused metaoffset=00000E80
Method: System.Int32 StrCmp(System.Byte*,System.Byte*) native,static,unused metaoffset=00000E9C
Method: void DTNow(System.DateTime*) native,static,unused metaoffset=00000EB4
Method: void DTtoS(System.Byte*,System.Byte*,System.DateTime*) native,static,unused metaoffset=00000EC4
Method: System.UInt16 GetHandle() native,static,unused metaoffset=00000ED8
Method: System.Boolean IsEnum(System.UIntPtr) native,static,unused metaoffset=00000EEC
Method: System.UInt16 GetEnumUnderlyingType(System.UIntPtr) native,static,unused metaoffset=00000F00

Type: Eclr.GCHeap:System.Object class,size=4,staticsize=0 align=4,vslot=0,islot=0,metasize=124
Method: System.Object newobj(System.UIntPtr) native,static metaoffset=00000F50
Method: System.Object newarr(System.UIntPtr,System.IntPtr) native,static metaoffset=00000F64
Method: System.String newstr(System.UInt16) native,static,unused metaoffset=00000F7C
Method: void .ctor() managed,constructor,unused metaoffset=00000F90

Type: Eclr.Environment:System.Object class,size=4,staticsize=0 align=4,vslot=0,islot=0,metasize=96
Method: System.UInt32 GetMicroTickCount() native,static metaoffset=00000FCC
Method: System.Boolean IsThreading() native,static metaoffset=00000FE8

Type: Eclr.DcgNonGeneric:System.Object class,size=4,staticsize=0 align=4,vslot=17,islot=0,metasize=128
Method: void .ctor() managed,constructor metaoffset=00001034,codesize=76
Method: System.Boolean Prolog(System.Object) native,virtual metaoffset=00001044,vslot=4
Method: void Change(System.Object) native,virtual metaoffset=00001058,vslot=5
Method: void Epilog(System.Object) native,virtual metaoffset=0000106C,vslot=6

Type: Eclr.IDcgNonGeneric interface align=4,vslot=0,islot=0,ifid=0,metasize=44

Type: Eclr.Emu:System.Object class,size=4,staticsize=0 align=4,vslot=0,islot=0,metasize=1268
Method: System.Int32 div(System.Int32,System.Int32) native,static,unused metaoffset=00001140
Method: System.UInt32 divu(System.UInt32,System.UInt32) native,static,unused metaoffset=00001154
Method: System.Int64 divl(System.Int64,System.Int64) native,static,unused metaoffset=00001168
Method: System.UInt64 divul(System.UInt64,System.UInt64) native,static,unused metaoffset=0000117C
Method: System.Int32 rem(System.Int32,System.Int32) native,static,unused metaoffset=00001190
Method: System.UInt32 remu(System.UInt32,System.UInt32) native,static,unused metaoffset=000011A4
Method: System.Int64 reml(System.Int64,System.Int64) native,static,unused metaoffset=000011B8
Method: System.UInt64 remul(System.UInt64,System.UInt64) native,static,unused metaoffset=000011CC
Method: System.Int32 mul(System.Int32,System.Int32) native,static,unused metaoffset=000011E0
Method: System.UInt32 mulu(System.UInt32,System.UInt32) native,static,unused metaoffset=000011F4
Method: System.Int64 mull(System.Int64,System.Int64) native,static,unused metaoffset=00001208
Method: System.UInt64 mulul(System.UInt64,System.UInt64) native,static,unused metaoffset=0000121C
Method: System.Single addf(System.Single,System.Single) native,static,unused metaoffset=00001230
Method: System.Single subf(System.Single,System.Single) native,static,unused metaoffset=00001244
Method: System.Single mulf(System.Single,System.Single) native,static,unused metaoffset=00001258
Method: System.Single divf(System.Single,System.Single) native,static,unused metaoffset=0000126C
Method: System.Single remf(System.Single,System.Single) native,static,unused metaoffset=00001280
Method: System.Double addd(System.Double,System.Double) native,static,unused metaoffset=00001294
Method: System.Double subd(System.Double,System.Double) native,static,unused metaoffset=000012A8
Method: System.Double muld(System.Double,System.Double) native,static,unused metaoffset=000012BC
Method: System.Double divd(System.Double,System.Double) native,static,unused metaoffset=000012D0
Method: System.Double remd(System.Double,System.Double) native,static,unused metaoffset=000012E4
Method: System.Boolean ceqf(System.Single,System.Single) native,static,unused metaoffset=000012F8
Method: System.Boolean cgtf(System.Single,System.Single) native,static,unused metaoffset=0000130C
Method: System.Boolean cltf(System.Single,System.Single) native,static,unused metaoffset=00001320
Method: System.Boolean ceqd(System.Double,System.Double) native,static,unused metaoffset=00001334
Method: System.Boolean cgtd(System.Double,System.Double) native,static,unused metaoffset=00001348
Method: System.Boolean cltd(System.Double,System.Double) native,static,unused metaoffset=0000135C
Method: System.Single ci4f(System.Int32) native,static,unused metaoffset=00001370
Method: System.Single cu4f(System.UInt32) native,static,unused metaoffset=00001384
Method: System.Single ci8f(System.Int64) native,static,unused metaoffset=00001398
Method: System.Single cu8f(System.UInt64) native,static,unused metaoffset=000013AC
Method: System.Int32 cfi4(System.Single) native,static,unused metaoffset=000013C0
Method: System.Int64 cfi8(System.Single) native,static,unused metaoffset=000013D4
Method: System.Double ci4d(System.Int32) native,static,unused metaoffset=000013E8
Method: System.Double cu4d(System.UInt32) native,static,unused metaoffset=000013FC
Method: System.Double ci8d(System.Int64) native,static,unused metaoffset=00001410
Method: System.Double cu8d(System.UInt64) native,static,unused metaoffset=00001424
Method: System.Int32 cdi4(System.Double) native,static,unused metaoffset=00001438
Method: System.Int64 cdi8(System.Double) native,static,unused metaoffset=0000144C
Method: System.Double cfd(System.Single) native,static,unused metaoffset=00001460
Method: System.Single cdf(System.Double) native,static,unused metaoffset=00001470
Method: System.Single Sin(System.Single) native,static,unused metaoffset=00001480
Method: System.Single Cos(System.Single) native,static,unused metaoffset=00001490
Method: System.Single Tan(System.Single) native,static,unused metaoffset=000014A0
Method: System.Single Asin(System.Single) native,static,unused metaoffset=000014B0
Method: System.Single Acos(System.Single) native,static,unused metaoffset=000014C4
Method: System.Single Atan(System.Single) native,static,unused metaoffset=000014D8
Method: System.Single Exp(System.Single) native,static,unused metaoffset=000014EC
Method: System.Single Log(System.Single) native,static,unused metaoffset=000014FC
Method: System.Single Log10(System.Single) native,static,unused metaoffset=0000150C
Method: System.Single Sqrt(System.Single) native,static,unused metaoffset=00001520
Method: System.Single Pow(System.Single,System.Single) native,static,unused metaoffset=00001534
Method: System.Single PowU4(System.Single,System.UInt32) native,static,unused metaoffset=00001548
Method: System.Single PowI4(System.Single,System.Int32) native,static,unused metaoffset=0000155C
Method: System.UInt32 U4mulF(System.UInt32,System.Single) native,static,unused metaoffset=00001570
Method: System.UInt32 U4divF(System.UInt32,System.Single) native,static,unused metaoffset=00001588

Type: Eclr.ErrorMessage:System.ValueType valuetype,size=16 align=4,vslot=0,islot=0,metasize=156
Field: System.UInt32 uErrorNumber size=4,offset=0
Field: System.UInt32 uErrorTimeStamp size=4,offset=4
Field: System.UInt16 wErrorInfoType size=2,offset=8
Field: System.UInt16 wErrorModul size=2,offset=10
Field: System.Void* pInfo size=4,offset=12

Type: Eclr.ErrorLog:System.Object class,size=4,staticsize=0 align=4,vslot=0,islot=0,metasize=228
Method: void SetError(System.UInt16,System.UInt16,System.UInt16,System.UInt16,System.Void*,System.UInt16) native,static metaoffset=00001600
Method: void SetError(System.UInt16,System.UInt16,System.UInt16) native,static metaoffset=00001620
Method: void ClearErrorLog() native,static,unused metaoffset=00001638
Method: System.Int32 GetMaximumErrorListSize() native,static,unused metaoffset=00001650
Method: System.Int32 GetCurrentNumberOfErrors() native,static,unused metaoffset=00001674
Method: System.Int32 GetError(System.Int32,Eclr.ErrorMessage*) native,static,unused metaoffset=00001698


Assembly: pcoslib version=2.1.1.0,native metasize=120
Type: System.Iec61131Lib.IecStringEx:System.ValueType valuetype,size=4 align=2,vslot=0,islot=0,metasize=204
Method: System.Byte* GetIecString() managed metaoffset=00001864,codesize=104
Method: void Copy(System.Iec61131Lib.IecStringEx*,System.Iec61131Lib.IecStringEx*) managed,static metaoffset=0000187C,codesize=308
Method: void Copy(System.String,System.Iec61131Lib.IecStringEx*) managed,static metaoffset=00001890,codesize=308
Method: void Copy(System.Byte*,System.Iec61131Lib.IecStringEx*) managed,static,unused metaoffset=000018A4
Method: void Init(System.String) managed metaoffset=000018B8,codesize=312
Field: System.Int16 maximumLength size=2,offset=0
Field: System.Int16 currentLength size=2,offset=2

Type: System.Iec61131Lib.IecString80:System.ValueType valuetype,size=86 align=2,vslot=0,islot=0,metasize=96
Method: void ctor() managed metaoffset=000018F4,codesize=76
Method: void rctor() managed,unused metaoffset=00001904
Field: System.Iec61131Lib.IecStringEx s size=4,offset=0

Type: Eclr.Pcos.IOGroup:System.ValueType valuetype,size=12 align=4,vslot=0,islot=0,metasize=88
Field: System.UInt16[] param size=4,offset=0
Field: System.UInt32 addr size=4,offset=4
Field: System.UInt32 size size=4,offset=8

Type: Eclr.Pcos.SystemEvents:System.Enum valuetype,size=2 align=2,vslot=0,islot=0,metasize=796
Field: System.UInt16 value__ size=2,offset=0
Field: Eclr.Pcos.SystemEvents ColdStart size=2,literal=00000000
Field: Eclr.Pcos.SystemEvents WarmStart size=2,literal=00000001
Field: Eclr.Pcos.SystemEvents HotStart size=2,literal=00000002
Field: Eclr.Pcos.SystemEvents Stop size=2,literal=00000003
Field: Eclr.Pcos.SystemEvents WatchDogExceeded size=2,literal=00000004
Field: Eclr.Pcos.SystemEvents MaximumCpuLoadExceeded size=2,literal=00000005
Field: Eclr.Pcos.SystemEvents ExcDiv0 size=2,literal=00000006
Field: Eclr.Pcos.SystemEvents ExcStack size=2,literal=00000007
Field: Eclr.Pcos.SystemEvents ExcBound size=2,literal=00000008
Field: Eclr.Pcos.SystemEvents ExcString size=2,literal=00000009
Field: Eclr.Pcos.SystemEvents ExcSystem size=2,literal=0000000A
Field: Eclr.Pcos.SystemEvents RetainMasterInit size=2,literal=0000000B
Field: Eclr.Pcos.SystemEvents ClrOut size=2,literal=0000000C
Field: Eclr.Pcos.SystemEvents OEM32 size=2,literal=00000020
Field: Eclr.Pcos.SystemEvents OEM33 size=2,literal=00000021
Field: Eclr.Pcos.SystemEvents OEM34 size=2,literal=00000022
Field: Eclr.Pcos.SystemEvents OEM35 size=2,literal=00000023
Field: Eclr.Pcos.SystemEvents OEM36 size=2,literal=00000024
Field: Eclr.Pcos.SystemEvents OEM37 size=2,literal=00000025
Field: Eclr.Pcos.SystemEvents OEM38 size=2,literal=00000026
Field: Eclr.Pcos.SystemEvents OEM39 size=2,literal=00000027
Field: Eclr.Pcos.SystemEvents OEM40 size=2,literal=00000028
Field: Eclr.Pcos.SystemEvents OEM41 size=2,literal=00000029
Field: Eclr.Pcos.SystemEvents OEM42 size=2,literal=0000002A
Field: Eclr.Pcos.SystemEvents OEM43 size=2,literal=0000002B
Field: Eclr.Pcos.SystemEvents OEM44 size=2,literal=0000002C
Field: Eclr.Pcos.SystemEvents OEM45 size=2,literal=0000002D
Field: Eclr.Pcos.SystemEvents OEM46 size=2,literal=0000002E
Field: Eclr.Pcos.SystemEvents OEM47 size=2,literal=0000002F
Field: Eclr.Pcos.SystemEvents OEM48 size=2,literal=00000030
Field: Eclr.Pcos.SystemEvents OEM49 size=2,literal=00000031
Field: Eclr.Pcos.SystemEvents OEM50 size=2,literal=00000032
Field: Eclr.Pcos.SystemEvents OEM51 size=2,literal=00000033
Field: Eclr.Pcos.SystemEvents OEM52 size=2,literal=00000034
Field: Eclr.Pcos.SystemEvents OEM53 size=2,literal=00000035
Field: Eclr.Pcos.SystemEvents OEM54 size=2,literal=00000036
Field: Eclr.Pcos.SystemEvents OEM55 size=2,literal=00000037
Field: Eclr.Pcos.SystemEvents OEM56 size=2,literal=00000038
Field: Eclr.Pcos.SystemEvents OEM57 size=2,literal=00000039
Field: Eclr.Pcos.SystemEvents OEM58 size=2,literal=0000003A
Field: Eclr.Pcos.SystemEvents OEM59 size=2,literal=0000003B
Field: Eclr.Pcos.SystemEvents OEM61 size=2,literal=0000003D
Field: Eclr.Pcos.SystemEvents OEM62 size=2,literal=0000003E
Field: Eclr.Pcos.SystemEvents OEM63 size=2,literal=0000003F
Field: Eclr.Pcos.SystemEvents OEM64 size=2,literal=00000040
Field: Eclr.Pcos.SystemEvents MaxSystemEvents size=2,literal=00000041

Type: Eclr.Pcos.ProgramStartMode:System.Enum valuetype,size=2 align=2,vslot=0,islot=0,metasize=128
Field: System.UInt16 value__ size=2,offset=0
Field: Eclr.Pcos.ProgramStartMode ColdStart size=2,literal=00000000
Field: Eclr.Pcos.ProgramStartMode WarmStart size=2,literal=00000001
Field: Eclr.Pcos.ProgramStartMode HotStart size=2,literal=00000002

Type: Eclr.Pcos.SysMem2:System.ValueType valuetype,size=40 align=4,vslot=0,islot=0,metasize=300
Field: System.UInt16 usTickPerSec size=2,offset=0
Field: System.UInt16 usUnused size=2,offset=2
Field: System.UInt32 MaxErr size=4,offset=4
Field: System.UInt32 NumErr size=4,offset=8
Field: System.Int16 maxTask size=2,offset=12
Field: System.Int16 MaxSysTasks size=2,offset=14
Field: System.Byte On size=1,offset=16
Field: System.Byte Ld size=1,offset=17
Field: System.Byte Force size=1,offset=18
Field: System.Byte Bp size=1,offset=19
Field: System.Byte Pf size=1,offset=20
Field: System.UInt16 MinFrTm size=2,offset=22
Field: System.UInt32 MinLdTm size=4,offset=24
Field: System.UInt32 MaxLdTm size=4,offset=28
Field: System.UInt32 LdCalcTm size=4,offset=32
Field: System.UInt32 uTickPerSec size=4,offset=36

Type: Eclr.Pcos.SysMem1:System.ValueType valuetype,size=12 align=4,vslot=0,islot=0,metasize=132
Field: System.UInt32 plcTick size=4,offset=0
Field: System.Int16 usedTasks size=2,offset=4
Field: System.Byte modeSTOP size=1,offset=6
Field: System.Byte modeRUN size=1,offset=7
Field: System.Byte modeHALT size=1,offset=8

Type: Eclr.Pcos.Sys2Mem2:System.ValueType valuetype,size=4 align=1,vslot=0,islot=0,metasize=68
Field: System.Byte DisMsCalc size=1,offset=0

Type: Eclr.Pcos.M2_1:System.Object class,size=4,staticsize=8 align=4,vslot=0,islot=0,metasize=80
Method: System.Void* GetMemPtr() managed,static metaoffset=00001A38,codesize=92
Field: Eclr.Pcos.Sys2Mem2 m2_1 size=4,static,offset=4

Type: Eclr.Pcos.M1_1:System.Object class,size=4,staticsize=16 align=4,vslot=0,islot=0,metasize=80
Method: System.Void* GetMemPtr() managed,static metaoffset=00001A70,codesize=92
Field: Eclr.Pcos.SysMem1 m1_1 size=12,static,offset=4

Type: Eclr.Pcos.M1_2:System.Object class,size=4,staticsize=0 align=4,vslot=0,islot=0,metasize=56
Method: System.Void* GetMemPtr() native,static metaoffset=00001AA8

Type: Eclr.Pcos.M1_3:System.Object class,size=4,staticsize=0 align=4,vslot=0,islot=0,metasize=56
Method: System.Void* GetMemPtr() native,static metaoffset=00001AE0

Type: Eclr.Pcos.Event:Eclr.DcgNonGeneric class,size=12,staticsize=0 align=4,vslot=17,islot=0,metasize=116
Method: void .ctor() managed,constructor metaoffset=00001B1C,codesize=76
Method: void Invoke() managed metaoffset=00001B2C,codesize=104
Field: System.String Name size=4,offset=4
Field: System.Threading.ThreadStart EventProcess size=4,offset=8

Type: Eclr.Pcos.PcosDomain:System.Object class,size=4,staticsize=0 align=4,vslot=0,islot=0,metasize=244
Method: void Start() native,static metaoffset=00001B78
Method: void Stop() native,static,unused metaoffset=00001B88
Method: void Abort(System.UInt16) native,static metaoffset=00001B98
Method: void Restart(System.UInt16) native,static,unused metaoffset=00001BA8
Method: void PreCycle() native,static metaoffset=00001BBC
Method: void PostCycle() native,static metaoffset=00001BD0
Method: System.UInt16 GetHandle() native,static metaoffset=00001BE4
Method: System.Int16 PddWrite(System.Byte*,System.Void*,System.Int32,System.UInt16) native,static,unused metaoffset=00001BF8
Method: System.Int16 PddRead(System.Byte*,System.Void*,System.Int32,System.UInt16) native,static,unused metaoffset=00001C14

Type: Eclr.Pcos.ResourceState:System.Enum valuetype,size=2 align=2,vslot=0,islot=0,metasize=136
Field: System.UInt16 value__ size=2,offset=0
Field: Eclr.Pcos.ResourceState Unloaded size=2,literal=00000000
Field: Eclr.Pcos.ResourceState Stopped size=2,literal=00000001
Field: Eclr.Pcos.ResourceState Loaded size=2,literal=00000002
Field: Eclr.Pcos.ResourceState Running size=2,literal=00000003

Type: Eclr.Pcos.Resource:System.Object class,size=4,staticsize=72 align=4,vslot=0,islot=0,metasize=904
Method: void Init(System.UInt16) managed,static metaoffset=00001CAC,codesize=464
Method: void PreCycle() managed,static metaoffset=00001CBC,codesize=72
Method: void PostCycle() managed,static metaoffset=00001CD0,codesize=72
Method: void OnTimedEvent(System.Object) managed,static,unused metaoffset=00001CE4
Method: Eclr.Pcos.Task CreateTask(System.String,Eclr.Pcos.TaskType,System.UInt16,System.Threading.ThreadStart,Eclr.Pcos.TInfo*) managed,static metaoffset=00001CFC,codesize=244
Method: Eclr.Pcos.Event SubscribeEvent(System.String,System.UInt16,System.Threading.ThreadStart) managed,static metaoffset=00001D1C,codesize=212
Method: void StartProcess() managed,static metaoffset=00001D3C,codesize=144
Method: void StopProcess() managed,static,unused metaoffset=00001D54
Method: void RestartProcess(Eclr.Pcos.ProgramStartMode) managed,static,unused metaoffset=00001D68
Method: void AbortProcess(Eclr.Pcos.SystemEvents) managed,static metaoffset=00001D84,codesize=140
Method: void Stop() managed,static metaoffset=00001D9C,codesize=116
Method: void Halt() managed,static metaoffset=00001DAC,codesize=188
Method: void Run() managed,static metaoffset=00001DBC,codesize=136
Method: System.UInt32 GetTimeStamp() managed,static,unused metaoffset=00001DC8
Method: void Schedule() managed,static metaoffset=00001DE0,codesize=904
Method: void RaiseTaskEvent(System.UInt16) managed,static metaoffset=00001DF4,codesize=112
Method: Eclr.Pcos.Task GetTaskEvent(System.UInt16) managed,static metaoffset=00001E10,codesize=188
Method: void CallSystemEventCB(System.UInt16) managed,static metaoffset=00001E2C,codesize=168
Method: void InvokeSystemEvent(Eclr.Pcos.SystemEvents) managed,static,unused metaoffset=00001E48
Method: void .cctor() managed,static,typeinitializer metaoffset=00001E64,codesize=92
Field: Eclr.Pcos.Event[] SysEvtLst size=4,static,offset=4
Field: System.UInt16 maxSysEvts size=2,static,offset=8
Field: System.UInt32 Tm2MaxLoadCalc size=4,static,offset=12
Field: System.UInt32 LoadCount size=4,static,offset=16
Field: System.UInt32 MaxLoadCount size=4,static,offset=20
Field: System.UInt32 DefaultCycle size=4,static,offset=24
Field: System.UInt32 cpuLoadCounter size=4,static,offset=28
Field: System.UInt32 currentCpuLoadTm size=4,static,offset=32
Field: System.UInt32 MinFreeTick size=4,static,offset=36
Field: System.UInt32 MinLdTm size=4,static,offset=40
Field: System.UInt32 MaxLoadTm size=4,static,offset=44
Field: System.UInt32 fullCycFakt size=4,static,offset=48
Field: System.UInt32 usedFakt size=4,static,offset=52
Field: System.UInt32 nextFreeCycFakt size=4,static,offset=56
Field: System.UInt32 LastTime size=4,static,offset=60
Field: System.Boolean thrdSupp size=1,static,offset=64
Field: Eclr.Pcos.ResourceState state size=2,static,offset=66
Field: System.UInt16 SchedPeriod size=2,static,offset=68

Type: Eclr.Pcos.TaskType:System.Enum valuetype,size=2 align=2,vslot=0,islot=0,metasize=140
Field: System.UInt16 value__ size=2,offset=0
Field: Eclr.Pcos.TaskType Cyclic size=2,literal=00000001
Field: Eclr.Pcos.TaskType TaskEvent size=2,literal=00000002
Field: Eclr.Pcos.TaskType DefaultTask size=2,literal=00000003
Field: Eclr.Pcos.TaskType ServiceTask size=2,literal=00000004

Type: Eclr.Pcos.TInfo:System.ValueType,Eclr.IDcgNonGeneric valuetype,size=128 align=4,vslot=0,islot=0,metasize=372
Field: System.UInt16 Stacks size=2,offset=0
Field: System.UInt16 Prio size=2,offset=2
Field: System.UInt32 usPeriod size=4,offset=4
Field: System.UInt32 usWd size=4,offset=8
Field: System.UInt16 msPeriod size=2,offset=12
Field: System.UInt16 msWd size=2,offset=14
Field: System.UInt32 usMinDur size=4,offset=16
Field: System.UInt32 usMaxDur size=4,offset=20
Field: System.UInt32 usCurDur size=4,offset=24
Field: System.UInt32 usMinDel size=4,offset=28
Field: System.UInt32 usMaxDel size=4,offset=32
Field: System.UInt32 usCurDel size=4,offset=36
Field: System.UInt16 msMinDur size=2,offset=40
Field: System.UInt16 msMaxDur size=2,offset=42
Field: System.UInt16 msCurDur size=2,offset=44
Field: System.UInt16 msMinDel size=2,offset=46
Field: System.UInt16 msMaxDel size=2,offset=48
Field: System.UInt16 msCurDel size=2,offset=50
Field: System.Iec61131Lib.IecStringEx NameStr size=4,offset=88

Type: Eclr.Pcos.Task:Eclr.DcgNonGeneric class,size=64,staticsize=8 align=4,vslot=24,islot=0,metasize=712
Method: void .ctor(System.String,Eclr.Pcos.TaskType,System.UInt16,Eclr.Pcos.TInfo*) managed,constructor metaoffset=00001F00,codesize=516
Method: void Invoke() managed metaoffset=00001F18,codesize=124
Method: void Process() managed metaoffset=00001F28,codesize=740
Method: void Start() managed metaoffset=00001F38,codesize=112
Method: void Abort() managed,unused metaoffset=00001F48
Method: void Halt() managed metaoffset=00001F58,codesize=76
Method: void SetWatchdog(System.UInt32) managed metaoffset=00001F68,codesize=144
Method: void SetTaskPeriod(System.UInt32) managed,unused metaoffset=00001F80
Method: void SetEventTaskIdentifier(System.UInt16) managed,unused metaoffset=00001F98
Method: void SetEndOfTaskCB(System.Threading.ThreadStart) managed metaoffset=00001FBC,codesize=72
Method: void taskBody() managed metaoffset=00001FD8,codesize=92
Method: void insertTask(Eclr.Pcos.Task) managed,static metaoffset=00001FEC,codesize=220
Method: void printTaskList() managed,static,unused metaoffset=00002004
Method: void Change(System.Object) managed,virtual metaoffset=0000201C,codesize=228,vslot=5
Field: System.String Name size=4,offset=4
Field: System.Boolean TaskActive size=1,offset=8
Field: System.Threading.Thread ThreadObject size=4,offset=12
Field: System.Threading.ThreadStart TaskProcess size=4,offset=16
Field: Eclr.Pcos.TaskType TypeOfTask size=2,offset=20
Field: System.UInt32 Period size=4,offset=24
Field: System.Int32 timeRemain size=4,offset=28
Field: System.Boolean taskEvRequested size=1,offset=32
Field: System.Boolean haltRequested size=1,offset=33
Field: System.UInt16 EventIdentifier size=2,offset=34
Field: System.Threading.AutoResetEvent Are size=4,offset=36
Field: System.UInt16 Prio size=2,offset=40
Field: Eclr.Pcos.TInfo* pTinfo size=4,offset=44
Field: System.UInt32 Watchdog size=4,offset=48
Field: System.Int32 WatchdogCounter size=4,offset=52
Field: Eclr.Pcos.Task Next size=4,offset=56
Field: System.Threading.ThreadStart CBEndOfTask size=4,offset=60
Field: Eclr.Pcos.Task Anchor size=4,static,offset=4


Assembly: eclriodrv_ib version=2.0.0.0,native metasize=36
Type: Eclr.Pcos.eclrIoDrv_Ib:Eclr.DcgNonGeneric class,size=4,staticsize=0 align=4,vslot=31,islot=0,metasize=772
Method: void .ctor() native,constructor metaoffset=00002BAC
Method: void Init(Eclr.Pcos.IOGroup[],Eclr.Pcos.IOGroup[]) native metaoffset=00002BBC
Method: void Open() native metaoffset=00002BD0
Method: void Close() native metaoffset=00002BE0
Method: System.Boolean Prolog(System.Object) native,virtual metaoffset=00002BF0,vslot=4
Method: void Change(System.Object) native,virtual metaoffset=00002C04,vslot=5
Method: void Epilog(System.Object) native,virtual metaoffset=00002C18,vslot=6
Method: void BeginReadAll() native metaoffset=00002C2C
Method: void BeginReadGroup(System.Int32) native metaoffset=00002C44
Method: System.SByte ReadSByte(System.Int32) native,unused metaoffset=00002C60
Method: System.Int16 ReadInt16(System.Int32) native,unused metaoffset=00002C78
Method: System.Int32 ReadInt32(System.Int32) native,unused metaoffset=00002C90
Method: System.Byte ReadByte(System.Int32) native,unused metaoffset=00002CA8
Method: System.UInt16 ReadUInt16(System.Int32) native metaoffset=00002CC0
Method: System.UInt32 ReadUInt32(System.Int32) native,unused metaoffset=00002CD8
Method: void ReadByteBuffer(System.Int32,System.Byte*,System.Int32) native,unused metaoffset=00002CF0
Method: void EndReadGroup() native metaoffset=00002D10
Method: void EndReadAll() native metaoffset=00002D28
Method: void BeginWriteAll() native,unused metaoffset=00002D3C
Method: void BeginWriteGroup(System.Int32) native,unused metaoffset=00002D54
Method: void WriteSByte(System.Int32,System.SByte) native,unused metaoffset=00002D70
Method: void WriteInt16(System.Int32,System.Int16) native,unused metaoffset=00002D88
Method: void WriteInt32(System.Int32,System.Int32) native,unused metaoffset=00002DA0
Method: void WriteByte(System.Int32,System.Byte) native,unused metaoffset=00002DB8
Method: void WriteUInt16(System.Int32,System.UInt16) native,unused metaoffset=00002DD0
Method: void WriteUInt32(System.Int32,System.UInt32) native,unused metaoffset=00002DE8
Method: void WriteByteBuffer(System.Int32,System.Byte*,System.Int32) native,unused metaoffset=00002E00
Method: void EndWriteGroup() native,unused metaoffset=00002E20
Method: void EndWriteAll() native,unused metaoffset=00002E38


Assembly: Ilc150Dlc version=2.0.0.0,native metasize=32
Type: PhoenixContact.SystemMemory:System.Object class,size=4,staticsize=0 align=4,vslot=0,islot=0,metasize=64
Method: System.Void* GetMemPtr() native,static metaoffset=00002ECC

Type: PhoenixContact.SharedMemory:System.Object class,size=4,staticsize=0 align=4,vslot=0,islot=0,metasize=64
Method: System.Void* GetMemPtr() native,static metaoffset=00002F0C


Assembly: __1stSTD_RESEx version=1.0.0.0 metasize=48
Type: ProConOS_eCLR.Task_Name_eCLR:System.ValueType valuetype,size=36 align=1,vslot=0,islot=0,metasize=128
Method: void ctor() managed,unused metaoffset=00002F94
Method: void rctor() managed,unused metaoffset=00002FA4
Field: System.Byte Anchor size=1,offset=0
Field: System.Int32 LB size=4,literal=00000000
Field: System.Int32 UB size=4,literal=00000023

Type: ProConOS_eCLR.Task_Info_eCLR:System.ValueType valuetype,size=128 align=4,vslot=0,islot=0,metasize=680
Method: void ctor() managed,unused metaoffset=00002FE4
Method: void rctor() managed,unused metaoffset=00002FF4
Field: System.Int16 TaskStack size=2,offset=0
Field: System.Int16 TaskPrio size=2,offset=2
Field: System.Int32 TaskPeriod_us size=4,offset=4
Field: System.Int32 TaskWatchdog_us size=4,offset=8
Field: System.Int16 TaskPeriod size=2,offset=12
Field: System.Int16 TaskWatchdog size=2,offset=14
Field: System.Int32 MinDuration_us size=4,offset=16
Field: System.Int32 MaxDuration_us size=4,offset=20
Field: System.Int32 CurDuration_us size=4,offset=24
Field: System.Int32 MinDelay_us size=4,offset=28
Field: System.Int32 MaxDelay_us size=4,offset=32
Field: System.Int32 CurDelay_us size=4,offset=36
Field: System.Int16 MinDuration size=2,offset=40
Field: System.Int16 MaxDuration size=2,offset=42
Field: System.Int16 CurDuration size=2,offset=44
Field: System.Int16 MinDelay size=2,offset=46
Field: System.Int16 MaxDelay size=2,offset=48
Field: System.Int16 CurDelay size=2,offset=50
Field: System.Int32 unused_1 size=4,offset=52
Field: System.Int32 unused_2 size=4,offset=56
Field: System.Int32 unused_3 size=4,offset=60
Field: System.Int32 unused_4 size=4,offset=64
Field: System.Int32 unused_5 size=4,offset=68
Field: System.Int32 unused_6 size=4,offset=72
Field: System.Int32 unused_7 size=4,offset=76
Field: System.Int32 unused_8 size=4,offset=80
Field: System.Int32 unused_9 size=4,offset=84
Field: System.Int16 TNameMaxSize size=2,offset=88
Field: System.Int16 TNameSize size=2,offset=90
Field: ProConOS_eCLR.Task_Name_eCLR TaskName size=36,offset=92

Type: ProConOS_eCLR.__TInfo0:System.Object class,size=4,staticsize=132 align=4,vslot=0,islot=0,metasize=100
Method: System.Void* GetMemPtr() managed,static metaoffset=00003030,codesize=88
Method: void .ctor() managed,constructor,unused metaoffset=00003044
Field: Eclr.Pcos.TInfo TI size=128,static,offset=4

Type: ProConOS_eCLR.__TInfoDummy:System.Object class,size=4,staticsize=132 align=4,vslot=0,islot=0,metasize=104
Method: System.Void* GetMemPtr() managed,static metaoffset=00003084,codesize=88
Method: void .ctor() managed,constructor,unused metaoffset=00003098
Field: Eclr.Pcos.TInfo TI size=128,static,offset=4

Type: ProConOS_eCLR.__DataAreas:System.Object class,size=4,staticsize=36 align=4,vslot=0,islot=0,metasize=324
Method: void ctor() managed,static metaoffset=000030D4,codesize=184
Method: void .ctor() managed,constructor,unused metaoffset=000030E4
Field: System.Void* M1_00000000_00000010 size=4,static,offset=4
Field: System.Void* M1_000007d0_00000028 size=4,static,offset=8
Field: System.Void* M1_00000bb8_00000080 size=4,static,offset=12
Field: System.Void* M1_00001388_00000080 size=4,static,offset=16
Field: System.Void* M1_00001408_00000080 size=4,static,offset=20
Field: System.Void* M1_0000ea60_000000c8 size=4,static,offset=24
Field: System.Void* M2_00000000_00000004 size=4,static,offset=28
Field: System.Void* M3_0000ee48_00000064 size=4,static,offset=32

Type: ProConOS_eCLR.ResGlobalVars:System.Object class,size=4,staticsize=360 align=4,vslot=0,islot=0,metasize=2756
Method: void ctor() managed,static metaoffset=00003128,codesize=1044
Method: void __Init() managed,static metaoffset=00003138,codesize=64
Method: void __RInit() managed,static metaoffset=00003148,codesize=64
Method: void rctor() managed,static metaoffset=00003158,codesize=64
Method: void .ctor() managed,constructor,unused metaoffset=00003168
Field: System.Int16 tmp size=2,static,offset=4
Field: System.UInt16 Analog_Input1 size=2,static,offset=6
Field: System.UInt16 Analog_Input2 size=2,static,offset=8
Field: System.Boolean* PLCMODE_ON size=4,static,offset=12,readonly
Field: System.Boolean* PLCMODE_LOADING size=4,static,offset=16,readonly
Field: System.Boolean* PLCMODE_RUN size=4,static,offset=20,readonly
Field: System.Boolean* PLCMODE_STOP size=4,static,offset=24,readonly
Field: System.Boolean* PLCMODE_HALT size=4,static,offset=28,readonly
Field: System.Boolean* PLCDEBUG_BPSET size=4,static,offset=32,readonly
Field: System.Boolean* PLCDEBUG_FORCE size=4,static,offset=36,readonly
Field: System.Boolean* PLCDEBUG_POWERFLOW size=4,static,offset=40,readonly
Field: System.Int16* PLC_TICKS_PER_SEC size=4,static,offset=44,readonly
Field: System.Int32* PLC_SYS_TICK_CNT size=4,static,offset=48,readonly
Field: System.Int16* PLC_TASK_AVAILABLE size=4,static,offset=52,readonly
Field: System.Int16* PLC_SYSTASK_AVAILABLE size=4,static,offset=56,readonly
Field: System.Int32* PLC_MAX_ERRORS size=4,static,offset=60,readonly
Field: System.Int32* PLC_ERRORS size=4,static,offset=64,readonly
Field: System.Int16* PLC_TASK_DEFINED size=4,static,offset=68,readonly
Field: ProConOS_eCLR.Task_Info_eCLR* PLC_TASK_1 size=4,static,offset=72,readonly
Field: ProConOS_eCLR.Task_Info_eCLR* PLC_TASK_2 size=4,static,offset=76,readonly
Field: ProConOS_eCLR.Task_Info_eCLR* PLC_TASK_3 size=4,static,offset=80,readonly
Field: ProConOS_eCLR.Task_Info_eCLR* PLC_TASK_4 size=4,static,offset=84,readonly
Field: ProConOS_eCLR.Task_Info_eCLR* PLC_TASK_5 size=4,static,offset=88,readonly
Field: ProConOS_eCLR.Task_Info_eCLR* PLC_TASK_6 size=4,static,offset=92,readonly
Field: ProConOS_eCLR.Task_Info_eCLR* PLC_TASK_7 size=4,static,offset=96,readonly
Field: ProConOS_eCLR.Task_Info_eCLR* PLC_TASK_8 size=4,static,offset=100,readonly
Field: System.UInt32* LICENSE size=4,static,offset=104,readonly
Field: System.Byte* MASTER_DIAG_STATUS_REG_HI size=4,static,offset=108,readonly
Field: System.Byte* MASTER_DIAG_STATUS_REG_LOW size=4,static,offset=112,readonly
Field: System.Boolean* MASTER_DIAG_STATUS_REG_BSA size=4,static,offset=116,readonly
Field: System.Boolean* MASTER_DIAG_STATUS_REG_SYSFAIL size=4,static,offset=120,readonly
Field: System.Boolean* MASTER_DIAG_STATUS_REG_RES size=4,static,offset=124,readonly
Field: System.Boolean* MASTER_DIAG_STATUS_REG_SYNCRES size=4,static,offset=128,readonly
Field: System.Boolean* MASTER_DIAG_STATUS_REG_DCR size=4,static,offset=132,readonly
Field: System.Boolean* MASTER_DIAG_STATUS_REG_WARN size=4,static,offset=136,readonly
Field: System.Boolean* MASTER_DIAG_STATUS_REG_QUAL size=4,static,offset=140,readonly
Field: System.Boolean* MASTER_DIAG_STATUS_REG_SSINFO size=4,static,offset=144,readonly
Field: System.Boolean* MASTER_DIAG_STATUS_REG_USER size=4,static,offset=148,readonly
Field: System.Boolean* MASTER_DIAG_STATUS_REG_PF size=4,static,offset=152,readonly
Field: System.Boolean* MASTER_DIAG_STATUS_REG_BUS size=4,static,offset=156,readonly
Field: System.Boolean* MASTER_DIAG_STATUS_REG_CTRL size=4,static,offset=160,readonly
Field: System.Boolean* MASTER_DIAG_STATUS_REG_DTC size=4,static,offset=164,readonly
Field: System.Boolean* MASTER_DIAG_STATUS_REG_RUN size=4,static,offset=168,readonly
Field: System.Boolean* MASTER_DIAG_STATUS_REG_ACT size=4,static,offset=172,readonly
Field: System.Boolean* MASTER_DIAG_STATUS_REG_RDY size=4,static,offset=176,readonly
Field: System.Byte* MASTER_DIAG_PARAM_REG_HI size=4,static,offset=180,readonly
Field: System.Byte* MASTER_DIAG_PARAM_REG_LOW size=4,static,offset=184,readonly
Field: System.Byte* MASTER_DIAG_PARAM_2_REG_HI size=4,static,offset=188,readonly
Field: System.Byte* MASTER_DIAG_PARAM_2_REG_LOW size=4,static,offset=192,readonly
Field: System.Boolean* COP_DIAG_STATUS_REG_RT_ERR size=4,static,offset=196,readonly
Field: System.Boolean* COP_DIAG_STATUS_REG_FAT_ERR size=4,static,offset=200,readonly
Field: System.Boolean* COP_DIAG_STATUS_REG_WARN size=4,static,offset=204,readonly
Field: System.Boolean* COP_DIAG_STATUS_REG_PON size=4,static,offset=208,readonly
Field: System.Boolean* COP_DIAG_STATUS_REG_FC_RUN size=4,static,offset=212,readonly
Field: System.Boolean* COP_DIAG_STATUS_REG_FC_STOP size=4,static,offset=216,readonly
Field: System.Boolean* COP_DIAG_STATUS_REG_FC_HALT size=4,static,offset=220,readonly
Field: System.Boolean* COP_DIAG_STATUS_REG_FC_LDG size=4,static,offset=224,readonly
Field: System.Boolean* COP_DIAG_STATUS_REG_FC_DBG size=4,static,offset=228,readonly
Field: System.Boolean* COP_DIAG_STATUS_REG_FC_RDO size=4,static,offset=232,readonly
Field: System.UInt16* COP_DIAG_PARAM_REG size=4,static,offset=236,readonly
Field: System.UInt16* COP_DIAG_PARAM_2_REG size=4,static,offset=240,readonly
Field: System.Boolean* COP_CPU_LOAD_WARNING size=4,static,offset=244,readonly
Field: System.UInt16* ONBOARD_INPUT size=4,static,offset=248,readonly
Field: System.Boolean* ONBOARD_INPUT_BIT0 size=4,static,offset=252,readonly
Field: System.Boolean* ONBOARD_INPUT_BIT1 size=4,static,offset=256,readonly
Field: System.Boolean* ONBOARD_INPUT_BIT2 size=4,static,offset=260,readonly
Field: System.Boolean* ONBOARD_INPUT_BIT3 size=4,static,offset=264,readonly
Field: System.Boolean* ONBOARD_INPUT_BIT6 size=4,static,offset=268,readonly
Field: System.Boolean* ONBOARD_INPUT_BIT7 size=4,static,offset=272,readonly
Field: System.Boolean* ONBOARD_OUTPUT_BIT0 size=4,static,offset=276
Field: System.Boolean* ONBOARD_OUTPUT_BIT1 size=4,static,offset=280
Field: System.Boolean* ONBOARD_OUTPUT_BIT2 size=4,static,offset=284
Field: System.Boolean* ONBOARD_OUTPUT_BIT3 size=4,static,offset=288
Field: System.Boolean* RTC_BATTERY_LOW size=4,static,offset=292,readonly
Field: System.Boolean* RTC_DATA_INVALID size=4,static,offset=296,readonly
Field: System.Boolean* FLASHCARD_PRESENT size=4,static,offset=300,readonly
Field: System.Boolean* ONBOARD_OUTPUT_OVERLOAD_0_3 size=4,static,offset=304,readonly
Field: System.Boolean* POWER_SUPPLY_MAIN_OK size=4,static,offset=308,readonly
Field: System.Boolean* POWER_SUPPLY_INPUTS_OK size=4,static,offset=312,readonly
Field: System.Boolean* POWER_SUPPLY_OUTPUTS_0_3_OK size=4,static,offset=316,readonly
Field: System.Boolean* KEY_SWITCH_RESET size=4,static,offset=320,readonly
Field: System.Boolean* KEY_SWITCH_STOP size=4,static,offset=324,readonly
Field: System.Boolean* KEY_SWITCH_RUN_PROG size=4,static,offset=328,readonly
Field: System.Int16* RTC_HOURS size=4,static,offset=332,readonly
Field: System.Int16* RTC_MINUTES size=4,static,offset=336,readonly
Field: System.Int16* RTC_SECONDS size=4,static,offset=340,readonly
Field: System.Int16* RTC_DAY size=4,static,offset=344,readonly
Field: System.Int16* RTC_MONTH size=4,static,offset=348,readonly
Field: System.Boolean ONBOARD_OUTPUT_BIT7 size=1,static,offset=352
Field: System.Boolean ONBOARD_OUTPUT_BIT5 size=1,static,offset=353
Field: System.Boolean ONBOARD_OUTPUT_BIT4 size=1,static,offset=354
Field: System.Int16* RTC_YEAR size=4,static,offset=356,readonly

Type: ProConOS_eCLR.__Misc:System.ValueType valuetype,size=0 align=1,vslot=0,islot=0,metasize=72
Field: System.Byte* StringConstStart size=4,static,offset=4


Assembly: Main@Main version=1.0.0.0 metasize=32
Type: ProConOS_eCLR.Main@Main:System.Object class,size=20,staticsize=0 align=4,vslot=0,islot=0,metasize=320
Method: void __Init() managed metaoffset=00004098,codesize=68
Method: void __RInit() managed metaoffset=000040A8,codesize=68
Method: void .ctor() managed,constructor metaoffset=000040B8,codesize=68
Method: void rctor() managed metaoffset=000040C8,codesize=68
Method: void __Process() managed metaoffset=000040D8,codesize=300
Field: System.Boolean LS3 size=1,offset=4
Field: System.Boolean LS1 size=1,offset=5
Field: System.Boolean LS2 size=1,offset=6
Field: System.Boolean Pump1 size=1,offset=7
Field: System.Boolean Pump2 size=1,offset=8
Field: System.Boolean Pump3 size=1,offset=9
Field: System.Boolean Pump4 size=1,offset=10
Field: System.Boolean Button1 size=1,offset=11
Field: System.Boolean Button2 size=1,offset=12
Field: System.Boolean Button3 size=1,offset=13
Field: System.Int16 pressure size=2,offset=14
Field: System.Int16 throughput_p3 size=2,offset=16


Assembly: __STD_TSK version=1.0.0.0 metasize=32
Type: ProConOS_eCLR.__STD_TSK:System.Object class,size=4,staticsize=12 align=4,vslot=0,islot=0,metasize=172
Method: void __Init() managed metaoffset=000041F8,codesize=108
Method: void __RInit() managed metaoffset=00004208,codesize=108
Method: void .ctor() managed,constructor metaoffset=00004218,codesize=132
Method: void rctor() managed metaoffset=00004228,codesize=108
Method: void __Process() managed metaoffset=00004238,codesize=108
Field: Eclr.Pcos.Task __EclrObj size=4,static,offset=4
Field: ProConOS_eCLR.Main@Main Main size=4,static,offset=8


Assembly: __STD_RES version=1.0.0.0 metasize=40
Type: ProConOS_eCLR.ApplicationName:System.ValueType valuetype,size=0 align=1,vslot=0,islot=0,metasize=140
Method: void .cctor() managed,static,typeinitializer metaoffset=000042CC,codesize=92
Field: System.Iec61131Lib.IecString80 ProjectName size=86,static,offset=4
Field: System.Iec61131Lib.IecString80 ConfigurationName size=86,static,offset=90
Field: System.Iec61131Lib.IecString80 ResourceName size=86,static,offset=176

Type: ProConOS_eCLR.__StringConstantLayout:System.ValueType valuetype,size=38 align=1,vslot=0,islot=0,metasize=52

Type: ProConOS_eCLR.__StringConstants:System.Object class,size=4,staticsize=44 align=4,vslot=0,islot=0,metasize=104
Method: void ctor() managed,static metaoffset=00004344,codesize=260
Method: void .ctor() managed,constructor,unused metaoffset=00004354
Field: ProConOS_eCLR.__StringConstantLayout scl size=38,static,offset=4

Type: ProConOS_eCLR.__STD_RES:System.Object class,size=4,staticsize=12 align=4,vslot=0,islot=0,metasize=156
Method: void __Process_STD_TSK() managed,static metaoffset=00004390,codesize=280
Method: void __Process() managed,static,entrypoint metaoffset=000043AC,codesize=1340
Method: void .ctor() managed,constructor,unused metaoffset=000043C0
Field: Eclr.Pcos.eclrIoDrv_Ib __eclriodrv_ib size=4,static,offset=4
Field: ProConOS_eCLR.__STD_TSK STD_TSK size=4,static,offset=8

Type: ProConOS_eCLR.__ApplicationEvents:System.Object class,size=4,staticsize=0 align=4,vslot=0,islot=0,metasize=180
Method: void RetainMasterInit() managed,static metaoffset=0000440C,codesize=136
Method: void ColdStart() managed,static metaoffset=00004428,codesize=152
Method: void WarmStart() managed,static metaoffset=0000443C,codesize=104
Method: void HotStart() managed,static metaoffset=00004450,codesize=104
Method: void Stop() managed,static metaoffset=00004464,codesize=104
Method: void .ctor() managed,constructor,unused metaoffset=00004474


VTable: slots=38,relocated=0
VTableEntry: System.Object.ToString()
VTableEntry: System.Object.Equals(System.Object)
VTableEntry: System.Object.GetHashCode()
VTableEntry: System.Object.Finalize()
VTableEntry: System.Object.ToString()
VTableEntry: System.Object.Equals(System.Object)
VTableEntry: System.Object.GetHashCode()
VTableEntry: System.Object.Finalize()
VTableEntry: System.Threading.ThreadStart.Invoke()
VTableEntry: System.Object.ToString()
VTableEntry: System.Object.Equals(System.Object)
VTableEntry: System.Object.GetHashCode()
VTableEntry: System.Threading.Thread.Finalize()
VTableEntry: System.Object.ToString()
VTableEntry: System.Object.Equals(System.Object)
VTableEntry: System.Object.GetHashCode()
VTableEntry: System.Threading.EventWaitHandle.Finalize()
VTableEntry: System.Object.ToString()
VTableEntry: System.Object.Equals(System.Object)
VTableEntry: System.Object.GetHashCode()
VTableEntry: System.Object.Finalize()
VTableEntry: Eclr.DcgNonGeneric.Prolog(System.Object)
VTableEntry: Eclr.DcgNonGeneric.Change(System.Object)
VTableEntry: Eclr.DcgNonGeneric.Epilog(System.Object)
VTableEntry: System.Object.ToString()
VTableEntry: System.Object.Equals(System.Object)
VTableEntry: System.Object.GetHashCode()
VTableEntry: System.Object.Finalize()
VTableEntry: Eclr.DcgNonGeneric.Prolog(System.Object)
VTableEntry: Eclr.Pcos.Task.Change(System.Object)
VTableEntry: Eclr.DcgNonGeneric.Epilog(System.Object)
VTableEntry: System.Object.ToString()
VTableEntry: System.Object.Equals(System.Object)
VTableEntry: System.Object.GetHashCode()
VTableEntry: System.Object.Finalize()
VTableEntry: Eclr.Pcos.eclrIoDrv_Ib.Prolog(System.Object)
VTableEntry: Eclr.Pcos.eclrIoDrv_Ib.Change(System.Object)
VTableEntry: Eclr.Pcos.eclrIoDrv_Ib.Epilog(System.Object)

ITable: slots=1,relocated=0
ITableEntry: vslot=24


MetaEnd:


static void ProConOS_eCLR.ApplicationName..cctor()
# size: 68
# offset: 00004794
00000000  DEFFFF04    addi sp, sp, -4
00000004  DFC00015    stw ra, +0(sp)
00000008  DEFFFE04    addi sp, sp, -8
0000000C  DF000115    stw fp, +4(sp)
00000010  DF000104    addi fp, sp, +4
00000014  E7FFFF15    stw ra, -4(fp)
00000018  00801404    addi r2, r0, +80 # movi r2, 80
0000001C  IL_0000000F:
0000001C  00C00034    orhi r3, r0, 0 R # static TypeInfo ProConOS_eCLR.ApplicationName (0000001C:19156:0)
00000020  18C00014    ori r3, r3, 0 # mov r3, 0
00000024  1880010D    sth r2, +4(r3)
00000028  IL_00000023:
00000028  1880168D    sth r2, +90(r3)
0000002C  IL_00000037:
0000002C  18802C0D    sth r2, +176(r3)
00000030  IL_0000003C:
00000030  E7FFFF17    ldw ra, -4(fp)
00000034  DF000117    ldw fp, +4(sp)
00000038  DEC00204    addi sp, sp, +8
0000003C  DEC00104    addi sp, sp, +4
00000040  F800283A    ret
# relocation table: 1 enties
00000044  001C,4AD4,0

static void ProConOS_eCLR.__STD_RES.__Process()
# size: 1044
# offset: 000047F0
00000000  DEFFFF04    addi sp, sp, -4
00000004  DFC00015    stw ra, +0(sp)
00000008  DEFFEC04    addi sp, sp, -80
0000000C  DF001315    stw fp, +76(sp)
00000010  DF001304    addi fp, sp, +76
00000014  E7FFF715    stw ra, -36(fp)
00000018  E43FF615    stw r16, -40(fp)
0000001C  E47FF515    stw r17, -44(fp)
00000020  E4BFF415    stw r18, -48(fp)
00000024  E4FFF315    stw r19, -52(fp)
00000028  E53FF215    stw r20, -56(fp)
0000002C  E57FF115    stw r21, -60(fp)
00000030  E5BFF015    stw r22, -64(fp)
00000034  E5FFEF15    stw r23, -68(fp)
00000038  008002C4    addi r2, r0, +11 # movi r2, 11
0000003C  1009883A    mov r4, r2
00000040  IL_00000002:
00000040  00000000    call 0 R # Eclr.Pcos.Resource.Init()  (00000040:7340:1)
00000044  IL_00000007:
00000044  00000000    call 0 R # ProConOS_eCLR.__StringConstants.ctor()  (00000044:17220:1)
00000048  00800034    orhi r2, r0, 0 R # static TypeInfo ProConOS_eCLR.__Misc (00000048:19128:0)
0000004C  10800014    ori r2, r2, 0 # mov r2, 0
00000050  10C00117    ldw r3, +4(r2)
00000054  01000004    addi r4, r0, +0 # movi r4, 0
00000058  IL_00000016:
00000058  1907883A    add r3, r3, r4
0000005C  1809883A    mov r4, r3
00000060  00C00034    orhi r3, r0, 0 R # static TypeInfo ProConOS_eCLR.ApplicationName (00000060:19156:0)
00000064  18C00014    ori r3, r3, 0 # mov r3, 0
00000068  19400104    addi r5, r3, +4
0000006C  IL_00000021:
0000006C  1021883A    mov r16, r2
00000070  1823883A    mov r17, r3
00000074  00000000    call 0 R # System.Iec61131Lib.IecStringEx.Copy()  (00000074:6268:1)
00000078  80800117    ldw r2, +4(r16)
0000007C  00C00384    addi r3, r0, +14 # movi r3, 14
00000080  IL_00000030:
00000080  10C5883A    add r2, r2, r3
00000084  1009883A    mov r4, r2
00000088  88801684    addi r2, r17, +90
0000008C  100B883A    mov r5, r2
00000090  IL_0000003B:
00000090  00000000    call 0 R # System.Iec61131Lib.IecStringEx.Copy()  (00000090:6268:1)
00000094  80800117    ldw r2, +4(r16)
00000098  00C00684    addi r3, r0, +26 # movi r3, 26
0000009C  IL_0000004A:
0000009C  10C5883A    add r2, r2, r3
000000A0  1009883A    mov r4, r2
000000A4  88802C04    addi r2, r17, +176
000000A8  100B883A    mov r5, r2
000000AC  IL_00000055:
000000AC  00000000    call 0 R # System.Iec61131Lib.IecStringEx.Copy()  (000000AC:6268:1)
000000B0  IL_0000005A:
000000B0  00000000    call 0 R # ProConOS_eCLR.__DataAreas.ctor()  (000000B0:12500:1)
000000B4  IL_0000005F:
000000B4  00000000    call 0 R # ProConOS_eCLR.ResGlobalVars.ctor()  (000000B4:12584:1)
000000B8  IL_00000064:
000000B8  00000000    call 0 R # ProConOS_eCLR.ResGlobalVars.rctor()  (000000B8:12632:1)
000000BC  IL_00000069:
000000BC  00000000    call 0 R # ProConOS_eCLR.ResGlobalVars.__Init()  (000000BC:12600:1)
000000C0  00800034    orhi r2, r0, 0 R # Eclr.Pcos.IOGroup[] class (000000C0:11856:0)
000000C4  10800014    ori r2, r2, 0 # mov r2, 0
000000C8  1009883A    mov r4, r2
000000CC  00800044    addi r2, r0, +1 # movi r2, 1
000000D0  100B883A    mov r5, r2
000000D4  IL_00000073:
000000D4  00000000    call 0 R # Eclr.GCHeap.newarr()  (000000D4:3940:1)
000000D8  IL_00000078:
000000D8  E0BFFF15    stw r2, -4(fp)
000000DC  00C00104    addi r3, r0, +4 # movi r3, 4
000000E0  IL_00000089:
000000E0  10C00415    stw r3, +16(r2)
000000E4  01000034    orhi r4, r0, 0 R # System.UInt16[] class (000000E4:8432:0)
000000E8  21000014    ori r4, r4, 0 # mov r4, 0
000000EC  180B883A    mov r5, r3
000000F0  IL_0000009E:
000000F0  1025883A    mov r18, r2
000000F4  00000000    call 0 R # Eclr.GCHeap.newarr()  (000000F4:3940:1)
000000F8  IL_000000A3:
000000F8  90800215    stw r2, +8(r18)
000000FC  00800034    orhi r2, r0, 0 R # Eclr.Pcos.IOGroup[] class (000000FC:11856:0)
00000100  10800014    ori r2, r2, 0 # mov r2, 0
00000104  1009883A    mov r4, r2
00000108  00800044    addi r2, r0, +1 # movi r2, 1
0000010C  100B883A    mov r5, r2
00000110  IL_000000AD:
00000110  00000000    call 0 R # Eclr.GCHeap.newarr()  (00000110:3940:1)
00000114  IL_000000B2:
00000114  E0BFFE15    stw r2, -8(fp)
00000118  00C00104    addi r3, r0, +4 # movi r3, 4
0000011C  IL_000000C3:
0000011C  10C00415    stw r3, +16(r2)
00000120  01000034    orhi r4, r0, 0 R # System.UInt16[] class (00000120:8432:0)
00000124  21000014    ori r4, r4, 0 # mov r4, 0
00000128  180B883A    mov r5, r3
0000012C  IL_000000D8:
0000012C  1027883A    mov r19, r2
00000130  00000000    call 0 R # Eclr.GCHeap.newarr()  (00000130:3940:1)
00000134  IL_000000DD:
00000134  98800215    stw r2, +8(r19)
00000138  00800034    orhi r2, r0, 0 R # Eclr.Pcos.eclrIoDrv_Ib class (00000138:11084:0)
0000013C  10800014    ori r2, r2, 0 # mov r2, 0
00000140  1009883A    mov r4, r2
00000144  IL_000000E2:
00000144  00000000    call 0 R # Eclr.GCHeap.newobj()  (00000144:3920:1)
00000148  1009883A    mov r4, r2
0000014C  1029883A    mov r20, r2
00000150  00000000    call 0 R # Eclr.Pcos.eclrIoDrv_Ib..ctor()  (00000150:11180:1)
00000154  IL_000000E7:
00000154  00800034    orhi r2, r0, 0 R # static TypeInfo ProConOS_eCLR.__STD_RES (00000154:19472:0)
00000158  10800014    ori r2, r2, 0 # mov r2, 0
0000015C  15000115    stw r20, +4(r2)
00000160  A009883A    mov r4, r20
00000164  900B883A    mov r5, r18
00000168  980D883A    mov r6, r19
0000016C  IL_000000F3:
0000016C  1029883A    mov r20, r2
00000170  00000000    call 0 R # Eclr.Pcos.eclrIoDrv_Ib.Init()  (00000170:11196:1)
00000174  00800034    orhi r2, r0, 0 R # ProConOS_eCLR.__STD_TSK class (00000174:16844:0)
00000178  10800014    ori r2, r2, 0 # mov r2, 0
0000017C  1009883A    mov r4, r2
00000180  IL_000000F8:
00000180  00000000    call 0 R # Eclr.GCHeap.newobj()  (00000180:3920:1)
00000184  1009883A    mov r4, r2
00000188  102B883A    mov r21, r2
0000018C  00000000    call 0 R # ProConOS_eCLR.__STD_TSK..ctor()  (0000018C:16920:1)
00000190  IL_000000FD:
00000190  A5400215    stw r21, +8(r20)
00000194  A809883A    mov r4, r21
00000198  IL_00000107:
00000198  00000000    call 0 R # ProConOS_eCLR.__STD_TSK.rctor()  (00000198:16936:1)
0000019C  A0800217    ldw r2, +8(r20)
000001A0  1009883A    mov r4, r2
000001A4  IL_00000111:
000001A4  00000000    call 0 R # ProConOS_eCLR.__STD_TSK.__Init()  (000001A4:16888:1)
000001A8  00800034    orhi r2, r0, 0 R # System.Threading.ThreadStart class (000001A8:1640:0)
000001AC  10800014    ori r2, r2, 0 # mov r2, 0
000001B0  1009883A    mov r4, r2
000001B4  IL_0000011D:
000001B4  00000000    call 0 R # Eclr.GCHeap.newobj()  (000001B4:3920:1)
000001B8  1009883A    mov r4, r2
000001BC  00C00004    addi r3, r0, +0 # movi r3, 0
000001C0  180B883A    mov r5, r3
000001C4  00C00034    orhi r3, r0, 0 R # ProConOS_eCLR.__STD_RES.__Process_STD_TSK()  (000001C4:17296:0)
000001C8  18C00014    ori r3, r3, 0 # mov r3, 0
000001CC  180D883A    mov r6, r3
000001D0  102B883A    mov r21, r2
000001D4  00000000    call 0 R # System.MulticastDelegate..ctor()  (000001D4:1300:1)
000001D8  IL_00000122:
000001D8  E57FFD15    stw r21, -12(fp)
000001DC  00800034    orhi r2, r0, 0 R # static TypeInfo ProConOS_eCLR.__DataAreas (000001DC:18724:0)
000001E0  10800014    ori r2, r2, 0 # mov r2, 0
000001E4  10C00417    ldw r3, +16(r2)
000001E8  D8C00015    stw r3, +0(sp)
000001EC  A80F883A    mov r7, r21
000001F0  00C00084    addi r3, r0, +2 # movi r3, 2
000001F4  180D883A    mov r6, r3
000001F8  00C000C4    addi r3, r0, +3 # movi r3, 3
000001FC  180B883A    mov r5, r3
00000200  00C00034    orhi r3, r0, 0 R # String (7,7) "STD_TSK" (00000200:17856:0)
00000204  18C00014    ori r3, r3, 0 # mov r3, 0
00000208  1809883A    mov r4, r3
0000020C  IL_00000130:
0000020C  102D883A    mov r22, r2
00000210  00000000    call 0 R # Eclr.Pcos.Resource.CreateTask()  (00000210:7420:1)
00000214  IL_00000135:
00000214  00C00034    orhi r3, r0, 0 R # static TypeInfo ProConOS_eCLR.__STD_TSK (00000214:19140:0)
00000218  18C00014    ori r3, r3, 0 # mov r3, 0
0000021C  18800115    stw r2, +4(r3)
00000220  1009883A    mov r4, r2
00000224  008001F4    orhi r2, r0, 7
00000228  10A84814    ori r2, r2, 41248 # mov r2, 500000
0000022C  100B883A    mov r5, r2
00000230  IL_00000144:
00000230  182F883A    mov r23, r3
00000234  00000000    call 0 R # Eclr.Pcos.Task.SetWatchdog()  (00000234:8040:1)
00000238  00800034    orhi r2, r0, 0 R # System.Threading.ThreadStart class (00000238:1640:0)
0000023C  10800014    ori r2, r2, 0 # mov r2, 0
00000240  1009883A    mov r4, r2
00000244  IL_00000150:
00000244  00000000    call 0 R # Eclr.GCHeap.newobj()  (00000244:3920:1)
00000248  1009883A    mov r4, r2
0000024C  00C00004    addi r3, r0, +0 # movi r3, 0
00000250  180B883A    mov r5, r3
00000254  00C00034    orhi r3, r0, 0 R # ProConOS_eCLR.__ApplicationEvents.RetainMasterInit()  (00000254:17420:0)
00000258  18C00014    ori r3, r3, 0 # mov r3, 0
0000025C  180D883A    mov r6, r3
00000260  E0BFEE15    stw r2, -72(fp)
00000264  00000000    call 0 R # System.MulticastDelegate..ctor()  (00000264:1300:1)
00000268  IL_00000155:
00000268  E0BFEE17    ldw r2, -72(fp)
0000026C  E0BFFC15    stw r2, -16(fp)
00000270  100D883A    mov r6, r2
00000274  00C002C4    addi r3, r0, +11 # movi r3, 11
00000278  180B883A    mov r5, r3
0000027C  00C00034    orhi r3, r0, 0 R # String (16,16) "RetainMasterInit" (0000027C:17880:0)
00000280  18C00014    ori r3, r3, 0 # mov r3, 0
00000284  1809883A    mov r4, r3
00000288  IL_0000015E:
00000288  00000000    call 0 R # Eclr.Pcos.Resource.SubscribeEvent()  (00000288:7452:1)
0000028C  00800034    orhi r2, r0, 0 R # System.Threading.ThreadStart class (0000028C:1640:0)
00000290  10800014    ori r2, r2, 0 # mov r2, 0
00000294  1009883A    mov r4, r2
00000298  IL_0000016B:
00000298  00000000    call 0 R # Eclr.GCHeap.newobj()  (00000298:3920:1)
0000029C  1009883A    mov r4, r2
000002A0  00C00004    addi r3, r0, +0 # movi r3, 0
000002A4  180B883A    mov r5, r3
000002A8  00C00034    orhi r3, r0, 0 R # ProConOS_eCLR.__ApplicationEvents.ColdStart()  (000002A8:17448:0)
000002AC  18C00014    ori r3, r3, 0 # mov r3, 0
000002B0  180D883A    mov r6, r3
000002B4  E0BFEE15    stw r2, -72(fp)
000002B8  00000000    call 0 R # System.MulticastDelegate..ctor()  (000002B8:1300:1)
000002BC  IL_00000170:
000002BC  E0BFEE17    ldw r2, -72(fp)
000002C0  E0BFFB15    stw r2, -20(fp)
000002C4  100D883A    mov r6, r2
000002C8  00C00004    addi r3, r0, +0 # movi r3, 0
000002CC  180B883A    mov r5, r3
000002D0  00C00034    orhi r3, r0, 0 R # String (9,9) "ColdStart" (000002D0:17920:0)
000002D4  18C00014    ori r3, r3, 0 # mov r3, 0
000002D8  1809883A    mov r4, r3
000002DC  IL_0000017A:
000002DC  00000000    call 0 R # Eclr.Pcos.Resource.SubscribeEvent()  (000002DC:7452:1)
000002E0  00800034    orhi r2, r0, 0 R # System.Threading.ThreadStart class (000002E0:1640:0)
000002E4  10800014    ori r2, r2, 0 # mov r2, 0
000002E8  1009883A    mov r4, r2
000002EC  IL_00000187:
000002EC  00000000    call 0 R # Eclr.GCHeap.newobj()  (000002EC:3920:1)
000002F0  1009883A    mov r4, r2
000002F4  00C00004    addi r3, r0, +0 # movi r3, 0
000002F8  180B883A    mov r5, r3
000002FC  00C00034    orhi r3, r0, 0 R # ProConOS_eCLR.__ApplicationEvents.WarmStart()  (000002FC:17468:0)
00000300  18C00014    ori r3, r3, 0 # mov r3, 0
00000304  180D883A    mov r6, r3
00000308  E0BFEE15    stw r2, -72(fp)
0000030C  00000000    call 0 R # System.MulticastDelegate..ctor()  (0000030C:1300:1)
00000310  IL_0000018C:
00000310  E0BFEE17    ldw r2, -72(fp)
00000314  E0BFFA15    stw r2, -24(fp)
00000318  100D883A    mov r6, r2
0000031C  00C00044    addi r3, r0, +1 # movi r3, 1
00000320  180B883A    mov r5, r3
00000324  00C00034    orhi r3, r0, 0 R # String (9,9) "WarmStart" (00000324:17948:0)
00000328  18C00014    ori r3, r3, 0 # mov r3, 0
0000032C  1809883A    mov r4, r3
00000330  IL_00000196:
00000330  00000000    call 0 R # Eclr.Pcos.Resource.SubscribeEvent()  (00000330:7452:1)
00000334  00800034    orhi r2, r0, 0 R # System.Threading.ThreadStart class (00000334:1640:0)
00000338  10800014    ori r2, r2, 0 # mov r2, 0
0000033C  1009883A    mov r4, r2
00000340  IL_000001A3:
00000340  00000000    call 0 R # Eclr.GCHeap.newobj()  (00000340:3920:1)
00000344  1009883A    mov r4, r2
00000348  00C00004    addi r3, r0, +0 # movi r3, 0
0000034C  180B883A    mov r5, r3
00000350  00C00034    orhi r3, r0, 0 R # ProConOS_eCLR.__ApplicationEvents.HotStart()  (00000350:17488:0)
00000354  18C00014    ori r3, r3, 0 # mov r3, 0
00000358  180D883A    mov r6, r3
0000035C  E0BFEE15    stw r2, -72(fp)
00000360  00000000    call 0 R # System.MulticastDelegate..ctor()  (00000360:1300:1)
00000364  IL_000001A8:
00000364  E0BFEE17    ldw r2, -72(fp)
00000368  E0BFF915    stw r2, -28(fp)
0000036C  100D883A    mov r6, r2
00000370  00C00084    addi r3, r0, +2 # movi r3, 2
00000374  180B883A    mov r5, r3
00000378  00C00034    orhi r3, r0, 0 R # String (8,8) "HotStart" (00000378:17976:0)
0000037C  18C00014    ori r3, r3, 0 # mov r3, 0
00000380  1809883A    mov r4, r3
00000384  IL_000001B2:
00000384  00000000    call 0 R # Eclr.Pcos.Resource.SubscribeEvent()  (00000384:7452:1)
00000388  00800034    orhi r2, r0, 0 R # System.Threading.ThreadStart class (00000388:1640:0)
0000038C  10800014    ori r2, r2, 0 # mov r2, 0
00000390  1009883A    mov r4, r2
00000394  IL_000001BF:
00000394  00000000    call 0 R # Eclr.GCHeap.newobj()  (00000394:3920:1)
00000398  1009883A    mov r4, r2
0000039C  00C00004    addi r3, r0, +0 # movi r3, 0
000003A0  180B883A    mov r5, r3
000003A4  00C00034    orhi r3, r0, 0 R # ProConOS_eCLR.__ApplicationEvents.Stop()  (000003A4:17508:0)
000003A8  18C00014    ori r3, r3, 0 # mov r3, 0
000003AC  180D883A    mov r6, r3
000003B0  E0BFEE15    stw r2, -72(fp)
000003B4  00000000    call 0 R # System.MulticastDelegate..ctor()  (000003B4:1300:1)
000003B8  IL_000001C4:
000003B8  E0BFEE17    ldw r2, -72(fp)
000003BC  E0BFF815    stw r2, -32(fp)
000003C0  100D883A    mov r6, r2
000003C4  00C000C4    addi r3, r0, +3 # movi r3, 3
000003C8  180B883A    mov r5, r3
000003CC  00C00034    orhi r3, r0, 0 R # String (4,4) "Stop" (000003CC:18000:0)
000003D0  18C00014    ori r3, r3, 0 # mov r3, 0
000003D4  1809883A    mov r4, r3
000003D8  IL_000001CE:
000003D8  00000000    call 0 R # Eclr.Pcos.Resource.SubscribeEvent()  (000003D8:7452:1)
000003DC  IL_000001D4:
000003DC  00000000    call 0 R # Eclr.Pcos.Resource.StartProcess()  (000003DC:7484:1)
000003E0  IL_000001D9:
000003E0  E7FFF717    ldw ra, -36(fp)
000003E4  E43FF617    ldw r16, -40(fp)
000003E8  E47FF517    ldw r17, -44(fp)
000003EC  E4BFF417    ldw r18, -48(fp)
000003F0  E4FFF317    ldw r19, -52(fp)
000003F4  E53FF217    ldw r20, -56(fp)
000003F8  E57FF117    ldw r21, -60(fp)
000003FC  E5BFF017    ldw r22, -64(fp)
00000400  E5FFEF17    ldw r23, -68(fp)
00000404  DF001317    ldw fp, +76(sp)
00000408  DEC01404    addi sp, sp, +80
0000040C  DEC00104    addi sp, sp, +4
00000410  F800283A    ret
# relocation table: 69 enties
00000414  03DC,1D3C,1
00000418  03D8,1D1C,1
0000041C  03CC,4650,0
00000420  03B4,0514,1
00000424  03A4,4464,0
00000428  0394,0F50,1
0000042C  0388,0668,0
00000430  0384,1D1C,1
00000434  0378,4638,0
00000438  0360,0514,1
0000043C  0350,4450,0
00000440  0340,0F50,1
00000444  0334,0668,0
00000448  0330,1D1C,1
0000044C  0324,461C,0
00000450  030C,0514,1
00000454  02FC,443C,0
00000458  02EC,0F50,1
0000045C  02E0,0668,0
00000460  02DC,1D1C,1
00000464  02D0,4600,0
00000468  02B8,0514,1
0000046C  02A8,4428,0
00000470  0298,0F50,1
00000474  028C,0668,0
00000478  0288,1D1C,1
0000047C  027C,45D8,0
00000480  0264,0514,1
00000484  0254,440C,0
00000488  0244,0F50,1
0000048C  0238,0668,0
00000490  0234,1F68,1
00000494  0214,4AC4,0
00000498  0210,1CFC,1
0000049C  0200,45C0,0
000004A0  01DC,4924,0
000004A4  01D4,0514,1
000004A8  01C4,4390,0
000004AC  01B4,0F50,1
000004B0  01A8,0668,0
000004B4  01A4,41F8,1
000004B8  0198,4228,1
000004BC  018C,4218,1
000004C0  0180,0F50,1
000004C4  0174,41CC,0
000004C8  0170,2BBC,1
000004CC  0154,4C10,0
000004D0  0150,2BAC,1
000004D4  0144,0F50,1
000004D8  0138,2B4C,0
000004DC  0130,0F64,1
000004E0  0120,20F0,0
000004E4  0110,0F64,1
000004E8  00FC,2E50,0
000004EC  00F4,0F64,1
000004F0  00E4,20F0,0
000004F4  00D4,0F64,1
000004F8  00C0,2E50,0
000004FC  00BC,3138,1
00000500  00B8,3158,1
00000504  00B4,3128,1
00000508  00B0,30D4,1
0000050C  00AC,187C,1
00000510  0090,187C,1
00000514  0074,187C,1
00000518  0060,4AD4,0
0000051C  0048,4AB8,0
00000520  0044,4344,1
00000524  0040,1CAC,1

static void ProConOS_eCLR.__ApplicationEvents.RetainMasterInit()
# size: 96
# offset: 00004D2C
00000000  DEFFFF04    addi sp, sp, -4
00000004  DFC00015    stw ra, +0(sp)
00000008  DEFFFD04    addi sp, sp, -12
0000000C  DF000215    stw fp, +8(sp)
00000010  DF000204    addi fp, sp, +8
00000014  E7FFFF15    stw ra, -4(fp)
00000018  E43FFE15    stw r16, -8(fp)
0000001C  IL_00000000:
0000001C  00000000    call 0 R # ProConOS_eCLR.ResGlobalVars.rctor()  (0000001C:12632:1)
00000020  IL_00000005:
00000020  00000000    call 0 R # ProConOS_eCLR.ResGlobalVars.__RInit()  (00000020:12616:1)
00000024  00800034    orhi r2, r0, 0 R # static TypeInfo ProConOS_eCLR.__STD_RES (00000024:19472:0)
00000028  10800014    ori r2, r2, 0 # mov r2, 0
0000002C  10C00217    ldw r3, +8(r2)
00000030  1809883A    mov r4, r3
00000034  IL_0000000F:
00000034  1021883A    mov r16, r2
00000038  00000000    call 0 R # ProConOS_eCLR.__STD_TSK.rctor()  (00000038:16936:1)
0000003C  80800217    ldw r2, +8(r16)
00000040  1009883A    mov r4, r2
00000044  IL_00000019:
00000044  00000000    call 0 R # ProConOS_eCLR.__STD_TSK.__RInit()  (00000044:16904:1)
00000048  IL_0000001E:
00000048  E7FFFF17    ldw ra, -4(fp)
0000004C  E43FFE17    ldw r16, -8(fp)
00000050  DF000217    ldw fp, +8(sp)
00000054  DEC00304    addi sp, sp, +12
00000058  DEC00104    addi sp, sp, +4
0000005C  F800283A    ret
# relocation table: 5 enties
00000060  0044,4208,1
00000064  0038,4228,1
00000068  0024,4C10,0
0000006C  0020,3148,1
00000070  001C,3158,1

static void ProConOS_eCLR.__ApplicationEvents.ColdStart()
# size: 108
# offset: 00004DB4
00000000  DEFFFF04    addi sp, sp, -4
00000004  DFC00015    stw ra, +0(sp)
00000008  DEFFFD04    addi sp, sp, -12
0000000C  DF000215    stw fp, +8(sp)
00000010  DF000204    addi fp, sp, +8
00000014  E7FFFF15    stw ra, -4(fp)
00000018  E43FFE15    stw r16, -8(fp)
0000001C  IL_00000000:
0000001C  00000000    call 0 R # ProConOS_eCLR.ResGlobalVars.rctor()  (0000001C:12632:1)
00000020  IL_00000005:
00000020  00000000    call 0 R # ProConOS_eCLR.ResGlobalVars.__RInit()  (00000020:12616:1)
00000024  00800034    orhi r2, r0, 0 R # static TypeInfo ProConOS_eCLR.__STD_RES (00000024:19472:0)
00000028  10800014    ori r2, r2, 0 # mov r2, 0
0000002C  10C00217    ldw r3, +8(r2)
00000030  1809883A    mov r4, r3
00000034  IL_0000000F:
00000034  1021883A    mov r16, r2
00000038  00000000    call 0 R # ProConOS_eCLR.__STD_TSK.rctor()  (00000038:16936:1)
0000003C  80800217    ldw r2, +8(r16)
00000040  1009883A    mov r4, r2
00000044  IL_00000019:
00000044  00000000    call 0 R # ProConOS_eCLR.__STD_TSK.__RInit()  (00000044:16904:1)
00000048  80800117    ldw r2, +4(r16)
0000004C  1009883A    mov r4, r2
00000050  IL_00000023:
00000050  00000000    call 0 R # Eclr.Pcos.eclrIoDrv_Ib.Open()  (00000050:11216:1)
00000054  IL_00000028:
00000054  E7FFFF17    ldw ra, -4(fp)
00000058  E43FFE17    ldw r16, -8(fp)
0000005C  DF000217    ldw fp, +8(sp)
00000060  DEC00304    addi sp, sp, +12
00000064  DEC00104    addi sp, sp, +4
00000068  F800283A    ret
# relocation table: 6 enties
0000006C  0050,2BD0,1
00000070  0044,4208,1
00000074  0038,4228,1
00000078  0024,4C10,0
0000007C  0020,3148,1
00000080  001C,3158,1

static void ProConOS_eCLR.__ApplicationEvents.WarmStart()
# size: 76
# offset: 00004E4C
00000000  DEFFFF04    addi sp, sp, -4
00000004  DFC00015    stw ra, +0(sp)
00000008  DEFFFD04    addi sp, sp, -12
0000000C  DF000215    stw fp, +8(sp)
00000010  DF000204    addi fp, sp, +8
00000014  E7FFFF15    stw ra, -4(fp)
00000018  E43FFE15    stw r16, -8(fp)
0000001C  00800034    orhi r2, r0, 0 R # static TypeInfo ProConOS_eCLR.__STD_RES (0000001C:19472:0)
00000020  10800014    ori r2, r2, 0 # mov r2, 0
00000024  10C00117    ldw r3, +4(r2)
00000028  1809883A    mov r4, r3
0000002C  IL_00000005:
0000002C  1021883A    mov r16, r2
00000030  00000000    call 0 R # Eclr.Pcos.eclrIoDrv_Ib.Open()  (00000030:11216:1)
00000034  IL_0000000A:
00000034  E7FFFF17    ldw ra, -4(fp)
00000038  E43FFE17    ldw r16, -8(fp)
0000003C  DF000217    ldw fp, +8(sp)
00000040  DEC00304    addi sp, sp, +12
00000044  DEC00104    addi sp, sp, +4
00000048  F800283A    ret
# relocation table: 2 enties
0000004C  0030,2BD0,1
00000050  001C,4C10,0

static void ProConOS_eCLR.__ApplicationEvents.HotStart()
# size: 76
# offset: 00004EB4
00000000  DEFFFF04    addi sp, sp, -4
00000004  DFC00015    stw ra, +0(sp)
00000008  DEFFFD04    addi sp, sp, -12
0000000C  DF000215    stw fp, +8(sp)
00000010  DF000204    addi fp, sp, +8
00000014  E7FFFF15    stw ra, -4(fp)
00000018  E43FFE15    stw r16, -8(fp)
0000001C  00800034    orhi r2, r0, 0 R # static TypeInfo ProConOS_eCLR.__STD_RES (0000001C:19472:0)
00000020  10800014    ori r2, r2, 0 # mov r2, 0
00000024  10C00117    ldw r3, +4(r2)
00000028  1809883A    mov r4, r3
0000002C  IL_00000005:
0000002C  1021883A    mov r16, r2
00000030  00000000    call 0 R # Eclr.Pcos.eclrIoDrv_Ib.Open()  (00000030:11216:1)
00000034  IL_0000000A:
00000034  E7FFFF17    ldw ra, -4(fp)
00000038  E43FFE17    ldw r16, -8(fp)
0000003C  DF000217    ldw fp, +8(sp)
00000040  DEC00304    addi sp, sp, +12
00000044  DEC00104    addi sp, sp, +4
00000048  F800283A    ret
# relocation table: 2 enties
0000004C  0030,2BD0,1
00000050  001C,4C10,0

static void ProConOS_eCLR.__ApplicationEvents.Stop()
# size: 76
# offset: 00004F1C
00000000  DEFFFF04    addi sp, sp, -4
00000004  DFC00015    stw ra, +0(sp)
00000008  DEFFFD04    addi sp, sp, -12
0000000C  DF000215    stw fp, +8(sp)
00000010  DF000204    addi fp, sp, +8
00000014  E7FFFF15    stw ra, -4(fp)
00000018  E43FFE15    stw r16, -8(fp)
0000001C  00800034    orhi r2, r0, 0 R # static TypeInfo ProConOS_eCLR.__STD_RES (0000001C:19472:0)
00000020  10800014    ori r2, r2, 0 # mov r2, 0
00000024  10C00117    ldw r3, +4(r2)
00000028  1809883A    mov r4, r3
0000002C  IL_00000005:
0000002C  1021883A    mov r16, r2
00000030  00000000    call 0 R # Eclr.Pcos.eclrIoDrv_Ib.Close()  (00000030:11232:1)
00000034  IL_0000000A:
00000034  E7FFFF17    ldw ra, -4(fp)
00000038  E43FFE17    ldw r16, -8(fp)
0000003C  DF000217    ldw fp, +8(sp)
00000040  DEC00304    addi sp, sp, +12
00000044  DEC00104    addi sp, sp, +4
00000048  F800283A    ret
# relocation table: 2 enties
0000004C  0030,2BE0,1
00000050  001C,4C10,0

void System.Threading.ThreadStart.Invoke()
# size: 104
# offset: 00004F84
00000000  DEFFFF04    addi sp, sp, -4
00000004  DFC00015    stw ra, +0(sp)
00000008  DEFFFC04    addi sp, sp, -16
0000000C  DF000315    stw fp, +12(sp)
00000010  DF000304    addi fp, sp, +12
00000014  E7FFFE15    stw ra, -8(fp)
00000018  E43FFD15    stw r16, -12(fp)
0000001C  E13FFF15    stw r4, -4(fp)
00000020  2021883A    mov r16, r4
00000024  80800117    ldw r2, +4(r16)
00000028  IL_00000001:
00000028  1000041E    bne r2, r0, +16 # 0000003C
0000002C  80800217    ldw r2, +8(r16)
00000030  10800017    ldw r2, +0(r2)
00000034  103EE83A    callr r2
00000038  IL_00000002:
00000038  00000506    br +20 # 00000050
0000003C  IL_00000003:
0000003C  80800117    ldw r2, +4(r16)
00000040  1009883A    mov r4, r2
00000044  80800217    ldw r2, +8(r16)
00000048  10800017    ldw r2, +0(r2)
0000004C  103EE83A    callr r2
00000050  IL_00000004:
00000050  E7FFFE17    ldw ra, -8(fp)
00000054  E43FFD17    ldw r16, -12(fp)
00000058  DF000317    ldw fp, +12(sp)
0000005C  DEC00404    addi sp, sp, +16
00000060  DEC00104    addi sp, sp, +4
00000064  F800283A    ret

static void System.Iec61131Lib.IecStringEx.Copy(System.Iec61131Lib.IecStringEx*,System.Iec61131Lib.IecStringEx*)
# size: 268
# offset: 00005000
00000000  DEFFFF04    addi sp, sp, -4
00000004  DFC00015    stw ra, +0(sp)
00000008  DEFFF704    addi sp, sp, -36
0000000C  DF000815    stw fp, +32(sp)
00000010  DF000804    addi fp, sp, +32
00000014  E7FFFB15    stw ra, -20(fp)
00000018  E43FFA15    stw r16, -24(fp)
0000001C  E47FF915    stw r17, -28(fp)
00000020  E4BFF815    stw r18, -32(fp)
00000024  2021883A    mov r16, r4
00000028  2823883A    mov r17, r5
0000002C  8009883A    mov r4, r16
00000030  IL_00000001:
00000030  00000000    call 0 R # System.Iec61131Lib.IecStringEx.GetIecString()  (00000030:6244:1)
00000034  IL_00000006:
00000034  E0BFFF15    stw r2, -4(fp)
00000038  8809883A    mov r4, r17
0000003C  IL_00000008:
0000003C  1025883A    mov r18, r2
00000040  00000000    call 0 R # System.Iec61131Lib.IecStringEx.GetIecString()  (00000040:6244:1)
00000044  IL_0000000D:
00000044  E0BFFE15    stw r2, -8(fp)
00000048  8080008F    ldh r2, +2(r16)
0000004C  88C0000F    ldh r3, +0(r17)
00000050  IL_0000001A:
00000050  18801A16    blt r3, r2, +104 # 000000BC
00000054  8080008F    ldh r2, +2(r16)
00000058  IL_00000022:
00000058  E0BFFD0D    sth r2, -12(fp)
0000005C  00C00004    addi r3, r0, +0 # movi r3, 0
00000060  IL_00000024:
00000060  E0FFFC15    stw r3, -16(fp)
00000064  IL_00000025:
00000064  00000A06    br +40 # 00000090
00000068  IL_00000027:
00000068  E0BFFC17    ldw r2, -16(fp)
0000006C  E0FFFF17    ldw r3, -4(fp)
00000070  IL_0000002C:
00000070  1889883A    add r4, r3, r2
00000074  21400003    ldbu r5, +0(r4)
00000078  IL_0000002E:
00000078  E13FFE17    ldw r4, -8(fp)
0000007C  208D883A    add r6, r4, r2
00000080  31400005    stb r5, +0(r6)
00000084  01400044    addi r5, r0, +1 # movi r5, 1
00000088  IL_00000031:
00000088  114D883A    add r6, r2, r5
0000008C  IL_00000032:
0000008C  E1BFFC15    stw r6, -16(fp)
00000090  IL_00000033:
00000090  E0BFFD0F    ldh r2, -12(fp)
00000094  1021883A    mov r16, r2
00000098  E0BFFC17    ldw r2, -16(fp)
0000009C  1025883A    mov r18, r2
000000A0  IL_00000035:
000000A0  943FF116    blt r18, r16, -60 # 00000068
000000A4  00800004    addi r2, r0, +0 # movi r2, 0
000000A8  IL_0000003B:
000000A8  E0FFFE17    ldw r3, -8(fp)
000000AC  1C09883A    add r4, r3, r16
000000B0  20800005    stb r2, +0(r4)
000000B4  IL_0000003E:
000000B4  8C00008D    sth r16, +2(r17)
000000B8  IL_00000043:
000000B8  00000C06    br +48 # 000000EC
000000BC  IL_00000044:
000000BC  00000000    call 0 R # Eclr.Pcos.PcosDomain.GetHandle()  (000000BC:7140:1)
000000C0  10BFFFCC    andi r2, r2, 65535
000000C4  100D883A    mov r6, r2
000000C8  00800484    addi r2, r0, +18 # movi r2, 18
000000CC  100B883A    mov r5, r2
000000D0  00800034    orhi r2, r0, 0
000000D4  10A00014    ori r2, r2, 32768 # mov r2, 32768
000000D8  1009883A    mov r4, r2
000000DC  IL_00000050:
000000DC  00000000    call 0 R # Eclr.ErrorLog.SetError()  (000000DC:5664:1)
000000E0  00800244    addi r2, r0, +9 # movi r2, 9
000000E4  1009883A    mov r4, r2
000000E8  IL_00000057:
000000E8  00000000    call 0 R # Eclr.Pcos.PcosDomain.Abort()  (000000E8:7064:1)
000000EC  IL_0000005C:
000000EC  E7FFFB17    ldw ra, -20(fp)
000000F0  E43FFA17    ldw r16, -24(fp)
000000F4  E47FF917    ldw r17, -28(fp)
000000F8  E4BFF817    ldw r18, -32(fp)
000000FC  DF000817    ldw fp, +32(sp)
00000100  DEC00904    addi sp, sp, +36
00000104  DEC00104    addi sp, sp, +4
00000108  F800283A    ret
# relocation table: 5 enties
0000010C  00E8,1B98,1
00000110  00DC,1620,1
00000114  00BC,1BE4,1
00000118  0040,1864,1
0000011C  0030,1864,1

static void Eclr.Pcos.Resource.Init(System.UInt16)
# size: 400
# offset: 00005134
00000000  DEFFFF04    addi sp, sp, -4
00000004  DFC00015    stw ra, +0(sp)
00000008  DEFFFC04    addi sp, sp, -16
0000000C  DF000315    stw fp, +12(sp)
00000010  DF000304    addi fp, sp, +12
00000014  E7FFFE15    stw ra, -8(fp)
00000018  E43FFD15    stw r16, -12(fp)
0000001C  2021883A    mov r16, r4
00000020  IL_00000001:
00000020  00800034    orhi r2, r0, 0 R # static TypeInfo Eclr.Pcos.Resource (00000020:18364:0)
00000024  10800014    ori r2, r2, 0 # mov r2, 0
00000028  1400020D    sth r16, +8(r2)
0000002C  00C00044    addi r3, r0, +1 # movi r3, 1
00000030  IL_0000000C:
00000030  80C9883A    add r4, r16, r3
00000034  IL_0000000E:
00000034  1100020D    sth r4, +8(r2)
00000038  10C0020B    ldhu r3, +8(r2)
0000003C  180B883A    mov r5, r3
00000040  00C00034    orhi r3, r0, 0 R # Eclr.Pcos.Event[] class (00000040:10236:0)
00000044  18C00014    ori r3, r3, 0 # mov r3, 0
00000048  1809883A    mov r4, r3
0000004C  IL_00000018:
0000004C  1021883A    mov r16, r2
00000050  00000000    call 0 R # Eclr.GCHeap.newarr()  (00000050:3940:1)
00000054  IL_0000001D:
00000054  80800115    stw r2, +4(r16)
00000058  IL_00000022:
00000058  00000000    call 0 R # Eclr.Pcos.M1_2.GetMemPtr()  (00000058:6824:1)
0000005C  IL_00000027:
0000005C  E0BFFF15    stw r2, -4(fp)
00000060  E0BFFF17    ldw r2, -4(fp)
00000064  1021883A    mov r16, r2
00000068  00800004    addi r2, r0, +0 # movi r2, 0
0000006C  IL_0000002B:
0000006C  80802F26    beq r16, r2, +188 # 0000012C
00000070  E0BFFF17    ldw r2, -4(fp)
00000074  10C0058B    ldhu r3, +22(r2)
00000078  1021883A    mov r16, r2
0000007C  IL_00000036:
0000007C  1800081E    bne r3, r0, +32 # 000000A0
00000080  E0BFFF17    ldw r2, -4(fp)
00000084  10C00617    ldw r3, +24(r2)
00000088  1021883A    mov r16, r2
0000008C  IL_0000003E:
0000008C  1800041E    bne r3, r0, +16 # 000000A0
00000090  E0BFFF17    ldw r2, -4(fp)
00000094  10C00717    ldw r3, +28(r2)
00000098  1021883A    mov r16, r2
0000009C  IL_00000046:
0000009C  18000626    beq r3, r0, +24 # 000000B8
000000A0  IL_00000048:
000000A0  E0BFFF17    ldw r2, -4(fp)
000000A4  10C0058B    ldhu r3, +22(r2)
000000A8  IL_0000004E:
000000A8  01000034    orhi r4, r0, 0 R # static TypeInfo Eclr.Pcos.Resource (000000A8:18364:0)
000000AC  21000014    ori r4, r4, 0 # mov r4, 0
000000B0  20C00915    stw r3, +36(r4)
000000B4  IL_00000053:
000000B4  00001106    br +68 # 000000FC
000000B8  IL_00000055:
000000B8  0080FA04    addi r2, r0, +1000 # movi r2, 1000
000000BC  IL_0000005B:
000000BC  E0FFFF17    ldw r3, -4(fp)
000000C0  18800915    stw r2, +36(r3)
000000C4  0083E804    addi r2, r0, +4000 # movi r2, 4000
000000C8  IL_00000066:
000000C8  1880058D    sth r2, +22(r3)
000000CC  01000B74    orhi r4, r0, 45
000000D0  2131B014    ori r4, r4, 50880 # mov r4, 3000000
000000D4  IL_00000071:
000000D4  19000615    stw r4, +24(r3)
000000D8  01001EB4    orhi r4, r0, 122
000000DC  21048014    ori r4, r4, 4608 # mov r4, 8000000
000000E0  IL_0000007C:
000000E0  19000715    stw r4, +28(r3)
000000E4  01002634    orhi r4, r0, 152
000000E8  2125A014    ori r4, r4, 38528 # mov r4, 10000000
000000EC  IL_00000087:
000000EC  19000815    stw r4, +32(r3)
000000F0  IL_00000092:
000000F0  01000034    orhi r4, r0, 0 R # static TypeInfo Eclr.Pcos.Resource (000000F0:18364:0)
000000F4  21000014    ori r4, r4, 0 # mov r4, 0
000000F8  20800915    stw r2, +36(r4)
000000FC  IL_00000097:
000000FC  E0BFFF17    ldw r2, -4(fp)
00000100  10C00617    ldw r3, +24(r2)
00000104  IL_0000009D:
00000104  01000034    orhi r4, r0, 0 R # static TypeInfo Eclr.Pcos.Resource (00000104:18364:0)
00000108  21000014    ori r4, r4, 0 # mov r4, 0
0000010C  20C00A15    stw r3, +40(r4)
00000110  10C00817    ldw r3, +32(r2)
00000114  IL_000000A8:
00000114  20C00315    stw r3, +12(r4)
00000118  IL_000000B2:
00000118  20C00515    stw r3, +20(r4)
0000011C  10C00717    ldw r3, +28(r2)
00000120  IL_000000BD:
00000120  20C00B15    stw r3, +44(r4)
00000124  10C00917    ldw r3, +36(r2)
00000128  IL_000000C9:
00000128  20C0110D    sth r3, +68(r4)
0000012C  IL_000000CE:
0000012C  00800034    orhi r2, r0, 0 R # static TypeInfo Eclr.Pcos.Resource (0000012C:18364:0)
00000130  10800014    ori r2, r2, 0 # mov r2, 0
00000134  10C00317    ldw r3, +12(r2)
00000138  0109C404    addi r4, r0, +10000 # movi r4, 10000
0000013C  IL_000000D8:
0000013C  2000011E    bne r4, r0, +4 # 00000144
00000140  00000000    call 0 R # Eclr.Helper.div0()  (00000140:3368:1)
00000144  1907203A    divu r3, r3, r4
00000148  IL_000000D9:
00000148  10C00C15    stw r3, +48(r2)
0000014C  11400A17    ldw r5, +40(r2)
00000150  IL_000000E8:
00000150  2000011E    bne r4, r0, +4 # 00000158
00000154  00000000    call 0 R # Eclr.Helper.div0()  (00000154:3368:1)
00000158  290B203A    divu r5, r5, r4
0000015C  IL_000000E9:
0000015C  11400D15    stw r5, +52(r2)
00000160  IL_000000F8:
00000160  1947C83A    sub r3, r3, r5
00000164  IL_000000F9:
00000164  10C00E15    stw r3, +56(r2)
00000168  IL_000000FE:
00000168  1021883A    mov r16, r2
0000016C  00000000    call 0 R # Eclr.Environment.IsThreading()  (0000016C:4072:1)
00000170  1080004C    andi r2, r2, 1
00000174  IL_00000103:
00000174  80801005    stb r2, +64(r16)
00000178  IL_00000108:
00000178  E7FFFE17    ldw ra, -8(fp)
0000017C  E43FFD17    ldw r16, -12(fp)
00000180  DF000317    ldw fp, +12(sp)
00000184  DEC00404    addi sp, sp, +16
00000188  DEC00104    addi sp, sp, +4
0000018C  F800283A    ret
# relocation table: 11 enties
00000190  016C,0FE8,1
00000194  0154,0D28,1
00000198  0140,0D28,1
0000019C  012C,47BC,0
000001A0  0104,47BC,0
000001A4  00F0,47BC,0
000001A8  00A8,47BC,0
000001AC  0058,1AA8,1
000001B0  0050,0F64,1
000001B4  0040,27FC,0
000001B8  0020,47BC,0

static Eclr.Pcos.Task Eclr.Pcos.Resource.CreateTask(System.String,Eclr.Pcos.TaskType,System.UInt16,System.Threading.ThreadStart,Eclr.Pcos.TInfo*)
# size: 208
# offset: 00005304
00000000  DEFFFF04    addi sp, sp, -4
00000004  DFC00015    stw ra, +0(sp)
00000008  DEFFF604    addi sp, sp, -40
0000000C  DF000915    stw fp, +36(sp)
00000010  DF000904    addi fp, sp, +36
00000014  E7FFFD15    stw ra, -12(fp)
00000018  E43FFC15    stw r16, -16(fp)
0000001C  E47FFB15    stw r17, -20(fp)
00000020  E4BFFA15    stw r18, -24(fp)
00000024  E4FFF915    stw r19, -28(fp)
00000028  E53FF815    stw r20, -32(fp)
0000002C  2021883A    mov r16, r4
00000030  2823883A    mov r17, r5
00000034  3025883A    mov r18, r6
00000038  3827883A    mov r19, r7
0000003C  00800004    addi r2, r0, +0 # movi r2, 0
00000040  IL_00000001:
00000040  E0BFFF15    stw r2, -4(fp)
00000044  IL_00000003:
00000044  98001726    beq r19, r0, +92 # 000000A4
00000048  00800034    orhi r2, r0, 0 R # static TypeInfo Eclr.Pcos.M1_1 (00000048:18344:0)
0000004C  10800014    ori r2, r2, 0 # mov r2, 0
00000050  10C0020F    ldh r3, +8(r2)
00000054  01000044    addi r4, r0, +1 # movi r4, 1
00000058  IL_00000015:
00000058  1907883A    add r3, r3, r4
0000005C  IL_00000017:
0000005C  10C0020D    sth r3, +8(r2)
00000060  00C00034    orhi r3, r0, 0 R # Eclr.Pcos.Task class (00000060:7876:0)
00000064  18C00014    ori r3, r3, 0 # mov r3, 0
00000068  1809883A    mov r4, r3
0000006C  IL_00000021:
0000006C  1029883A    mov r20, r2
00000070  00000000    call 0 R # Eclr.GCHeap.newobj()  (00000070:3920:1)
00000074  1009883A    mov r4, r2
00000078  800B883A    mov r5, r16
0000007C  880D883A    mov r6, r17
00000080  900F883A    mov r7, r18
00000084  E0C00217    ldw r3, +8(fp)
00000088  D8C00015    stw r3, +0(sp)
0000008C  1021883A    mov r16, r2
00000090  1823883A    mov r17, r3
00000094  00000000    call 0 R # Eclr.Pcos.Task..ctor()  (00000094:7936:1)
00000098  IL_00000026:
00000098  E43FFE15    stw r16, -8(fp)
0000009C  IL_00000029:
0000009C  84C00415    stw r19, +16(r16)
000000A0  IL_0000002F:
000000A0  E43FFF15    stw r16, -4(fp)
000000A4  IL_00000030:
000000A4  E0BFFF17    ldw r2, -4(fp)
000000A8  E7FFFD17    ldw ra, -12(fp)
000000AC  E43FFC17    ldw r16, -16(fp)
000000B0  E47FFB17    ldw r17, -20(fp)
000000B4  E4BFFA17    ldw r18, -24(fp)
000000B8  E4FFF917    ldw r19, -28(fp)
000000BC  E53FF817    ldw r20, -32(fp)
000000C0  DF000917    ldw fp, +36(sp)
000000C4  DEC00A04    addi sp, sp, +40
000000C8  DEC00104    addi sp, sp, +4
000000CC  F800283A    ret
# relocation table: 4 enties
000000D0  0094,1F00,1
000000D4  0070,0F50,1
000000D8  0060,1EC4,0
000000DC  0048,47A8,0

static Eclr.Pcos.Event Eclr.Pcos.Resource.SubscribeEvent(System.String,System.UInt16,System.Threading.ThreadStart)
# size: 172
# offset: 000053F8
00000000  DEFFFF04    addi sp, sp, -4
00000004  DFC00015    stw ra, +0(sp)
00000008  DEFFF904    addi sp, sp, -28
0000000C  DF000615    stw fp, +24(sp)
00000010  DF000604    addi fp, sp, +24
00000014  E7FFFE15    stw ra, -8(fp)
00000018  E43FFD15    stw r16, -12(fp)
0000001C  E47FFC15    stw r17, -16(fp)
00000020  E4BFFB15    stw r18, -20(fp)
00000024  E4FFFA15    stw r19, -24(fp)
00000028  00800034    orhi r2, r0, 0 R # Eclr.Pcos.Event class (00000028:6904:0)
0000002C  10800014    ori r2, r2, 0 # mov r2, 0
00000030  2021883A    mov r16, r4
00000034  1009883A    mov r4, r2
00000038  IL_00000000:
00000038  2823883A    mov r17, r5
0000003C  3025883A    mov r18, r6
00000040  00000000    call 0 R # Eclr.GCHeap.newobj()  (00000040:3920:1)
00000044  1009883A    mov r4, r2
00000048  1027883A    mov r19, r2
0000004C  00000000    call 0 R # Eclr.Pcos.Event..ctor()  (0000004C:6940:1)
00000050  IL_00000005:
00000050  E4FFFF15    stw r19, -4(fp)
00000054  IL_00000008:
00000054  9C000115    stw r16, +4(r19)
00000058  IL_0000000F:
00000058  9C800215    stw r18, +8(r19)
0000005C  00800034    orhi r2, r0, 0 R # static TypeInfo Eclr.Pcos.Resource (0000005C:18364:0)
00000060  10800014    ori r2, r2, 0 # mov r2, 0
00000064  10C00117    ldw r3, +4(r2)
00000068  19000117    ldw r4, +4(r3)
0000006C  IL_0000001B:
0000006C  89000136    bltu r17, r4, +4 # 00000074
00000070  00000000    call 0 R # Eclr.Helper.bound()  (00000070:3384:1)
00000074  882290BA    slli r17, r17, 2
00000078  88E3883A    add r17, r17, r3
0000007C  8CC00215    stw r19, +8(r17)
00000080  IL_0000001D:
00000080  1007883A    mov r3, r2
00000084  9805883A    mov r2, r19
00000088  E7FFFE17    ldw ra, -8(fp)
0000008C  E43FFD17    ldw r16, -12(fp)
00000090  E47FFC17    ldw r17, -16(fp)
00000094  E4BFFB17    ldw r18, -20(fp)
00000098  E4FFFA17    ldw r19, -24(fp)
0000009C  DF000617    ldw fp, +24(sp)
000000A0  DEC00704    addi sp, sp, +28
000000A4  DEC00104    addi sp, sp, +4
000000A8  F800283A    ret
# relocation table: 5 enties
000000AC  0070,0D38,1
000000B0  005C,47BC,0
000000B4  004C,1B1C,1
000000B8  0040,0F50,1
000000BC  0028,1AF8,0

static void Eclr.Pcos.Resource.StartProcess()
# size: 112
# offset: 000054CC
00000000  DEFFFF04    addi sp, sp, -4
00000004  DFC00015    stw ra, +0(sp)
00000008  DEFFFC04    addi sp, sp, -16
0000000C  DF000315    stw fp, +12(sp)
00000010  DF000304    addi fp, sp, +12
00000014  E7FFFE15    stw ra, -8(fp)
00000018  E43FFD15    stw r16, -12(fp)
0000001C  00800034    orhi r2, r0, 0 R # static TypeInfo Eclr.Pcos.Task (0000001C:18440:0)
00000020  10800014    ori r2, r2, 0 # mov r2, 0
00000024  10C00117    ldw r3, +4(r2)
00000028  IL_00000005:
00000028  E0FFFF15    stw r3, -4(fp)
0000002C  IL_00000006:
0000002C  00000606    br +24 # 00000048
00000030  IL_00000008:
00000030  E0BFFF17    ldw r2, -4(fp)
00000034  1009883A    mov r4, r2
00000038  IL_00000009:
00000038  1021883A    mov r16, r2
0000003C  00000000    call 0 R # Eclr.Pcos.Task.Start()  (0000003C:7992:1)
00000040  80800E17    ldw r2, +56(r16)
00000044  IL_00000014:
00000044  E0BFFF15    stw r2, -4(fp)
00000048  IL_00000015:
00000048  E0BFFF17    ldw r2, -4(fp)
0000004C  1021883A    mov r16, r2
00000050  IL_00000016:
00000050  803FF71E    bne r16, r0, -36 # 00000030
00000054  IL_00000018:
00000054  00000000    call 0 R # Eclr.Pcos.PcosDomain.Start()  (00000054:7032:1)
00000058  IL_0000001D:
00000058  E7FFFE17    ldw ra, -8(fp)
0000005C  E43FFD17    ldw r16, -12(fp)
00000060  DF000317    ldw fp, +12(sp)
00000064  DEC00404    addi sp, sp, +16
00000068  DEC00104    addi sp, sp, +4
0000006C  F800283A    ret
# relocation table: 3 enties
00000070  0054,1B78,1
00000074  003C,1F38,1
00000078  001C,4808,0

static void Eclr.Pcos.Resource.Stop()
# size: 88
# offset: 0000555C
00000000  DEFFFF04    addi sp, sp, -4
00000004  DFC00015    stw ra, +0(sp)
00000008  DEFFFE04    addi sp, sp, -8
0000000C  DF000115    stw fp, +4(sp)
00000010  DF000104    addi fp, sp, +4
00000014  E7FFFF15    stw ra, -4(fp)
00000018  00800044    addi r2, r0, +1 # movi r2, 1
0000001C  IL_00000001:
0000001C  00C00034    orhi r3, r0, 0 R # static TypeInfo Eclr.Pcos.Resource (0000001C:18364:0)
00000020  18C00014    ori r3, r3, 0 # mov r3, 0
00000024  1880108D    sth r2, +66(r3)
00000028  01000004    addi r4, r0, +0 # movi r4, 0
0000002C  IL_0000000C:
0000002C  01400034    orhi r5, r0, 0 R # static TypeInfo Eclr.Pcos.M1_1 (0000002C:18344:0)
00000030  29400014    ori r5, r5, 0 # mov r5, 0
00000034  290002C5    stb r4, +11(r5)
00000038  IL_00000017:
00000038  28800285    stb r2, +10(r5)
0000003C  IL_0000001D:
0000003C  19000415    stw r4, +16(r3)
00000040  IL_00000023:
00000040  19000615    stw r4, +24(r3)
00000044  IL_00000028:
00000044  E7FFFF17    ldw ra, -4(fp)
00000048  DF000117    ldw fp, +4(sp)
0000004C  DEC00204    addi sp, sp, +8
00000050  DEC00104    addi sp, sp, +4
00000054  F800283A    ret
# relocation table: 2 enties
00000058  002C,47A8,0
0000005C  001C,47BC,0

static void Eclr.Pcos.Resource.Halt()
# size: 152
# offset: 000055D0
00000000  DEFFFF04    addi sp, sp, -4
00000004  DFC00015    stw ra, +0(sp)
00000008  DEFFFC04    addi sp, sp, -16
0000000C  DF000315    stw fp, +12(sp)
00000010  DF000304    addi fp, sp, +12
00000014  E7FFFE15    stw ra, -8(fp)
00000018  E43FFD15    stw r16, -12(fp)
0000001C  00800004    addi r2, r0, +0 # movi r2, 0
00000020  IL_00000006:
00000020  00C00034    orhi r3, r0, 0 R # static TypeInfo Eclr.Pcos.M1_1 (00000020:18344:0)
00000024  18C00014    ori r3, r3, 0 # mov r3, 0
00000028  188002C5    stb r2, +11(r3)
0000002C  IL_00000011:
0000002C  18800285    stb r2, +10(r3)
00000030  01000044    addi r4, r0, +1 # movi r4, 1
00000034  IL_0000001C:
00000034  19000305    stb r4, +12(r3)
00000038  IL_00000022:
00000038  01000034    orhi r4, r0, 0 R # static TypeInfo Eclr.Pcos.Resource (00000038:18364:0)
0000003C  21000014    ori r4, r4, 0 # mov r4, 0
00000040  20800415    stw r2, +16(r4)
00000044  IL_00000028:
00000044  20800615    stw r2, +24(r4)
00000048  00800034    orhi r2, r0, 0 R # static TypeInfo Eclr.Pcos.Task (00000048:18440:0)
0000004C  10800014    ori r2, r2, 0 # mov r2, 0
00000050  11400117    ldw r5, +4(r2)
00000054  IL_00000032:
00000054  E17FFF15    stw r5, -4(fp)
00000058  IL_00000033:
00000058  00000606    br +24 # 00000074
0000005C  IL_00000035:
0000005C  E0BFFF17    ldw r2, -4(fp)
00000060  1009883A    mov r4, r2
00000064  IL_00000036:
00000064  1021883A    mov r16, r2
00000068  00000000    call 0 R # Eclr.Pcos.Task.Halt()  (00000068:8024:1)
0000006C  80800E17    ldw r2, +56(r16)
00000070  IL_00000041:
00000070  E0BFFF15    stw r2, -4(fp)
00000074  IL_00000042:
00000074  E0BFFF17    ldw r2, -4(fp)
00000078  1021883A    mov r16, r2
0000007C  IL_00000043:
0000007C  803FF71E    bne r16, r0, -36 # 0000005C
00000080  IL_00000045:
00000080  E7FFFE17    ldw ra, -8(fp)
00000084  E43FFD17    ldw r16, -12(fp)
00000088  DF000317    ldw fp, +12(sp)
0000008C  DEC00404    addi sp, sp, +16
00000090  DEC00104    addi sp, sp, +4
00000094  F800283A    ret
# relocation table: 4 enties
00000098  0068,1F58,1
0000009C  0048,4808,0
000000A0  0038,47BC,0
000000A4  0020,47A8,0

static void Eclr.Pcos.Resource.Run()
# size: 104
# offset: 0000568C
00000000  DEFFFF04    addi sp, sp, -4
00000004  DFC00015    stw ra, +0(sp)
00000008  DEFFFE04    addi sp, sp, -8
0000000C  DF000115    stw fp, +4(sp)
00000010  DF000104    addi fp, sp, +4
00000014  E7FFFF15    stw ra, -4(fp)
00000018  IL_00000000:
00000018  00000000    call 0 R # Eclr.Environment.GetMicroTickCount()  (00000018:4044:1)
0000001C  IL_00000005:
0000001C  00C00034    orhi r3, r0, 0 R # static TypeInfo Eclr.Pcos.Resource (0000001C:18364:0)
00000020  18C00014    ori r3, r3, 0 # mov r3, 0
00000024  18800F15    stw r2, +60(r3)
00000028  00800004    addi r2, r0, +0 # movi r2, 0
0000002C  IL_0000000B:
0000002C  18800415    stw r2, +16(r3)
00000030  IL_00000011:
00000030  18800615    stw r2, +24(r3)
00000034  01000044    addi r4, r0, +1 # movi r4, 1
00000038  IL_0000001C:
00000038  01400034    orhi r5, r0, 0 R # static TypeInfo Eclr.Pcos.M1_1 (00000038:18344:0)
0000003C  29400014    ori r5, r5, 0 # mov r5, 0
00000040  290002C5    stb r4, +11(r5)
00000044  IL_00000027:
00000044  28800285    stb r2, +10(r5)
00000048  IL_00000032:
00000048  28800305    stb r2, +12(r5)
0000004C  008000C4    addi r2, r0, +3 # movi r2, 3
00000050  IL_00000038:
00000050  1880108D    sth r2, +66(r3)
00000054  IL_0000003D:
00000054  E7FFFF17    ldw ra, -4(fp)
00000058  DF000117    ldw fp, +4(sp)
0000005C  DEC00204    addi sp, sp, +8
00000060  DEC00104    addi sp, sp, +4
00000064  F800283A    ret
# relocation table: 3 enties
00000068  0038,47A8,0
0000006C  001C,47BC,0
00000070  0018,0FCC,1

static void Eclr.Pcos.Resource.Schedule()
# size: 800
# offset: 00005714
00000000  DEFFFF04    addi sp, sp, -4
00000004  DFC00015    stw ra, +0(sp)
00000008  DEFFE004    addi sp, sp, -128
0000000C  DF001F15    stw fp, +124(sp)
00000010  DF001F04    addi fp, sp, +124
00000014  E7FFE515    stw ra, -108(fp)
00000018  E43FE415    stw r16, -112(fp)
0000001C  E47FE315    stw r17, -116(fp)
00000020  00800034    orhi r2, r0, 0 R # static TypeInfo Eclr.Pcos.M1_1 (00000020:18344:0)
00000024  10800014    ori r2, r2, 0 # mov r2, 0
00000028  10C00117    ldw r3, +4(r2)
0000002C  01000044    addi r4, r0, +1 # movi r4, 1
00000030  IL_0000000C:
00000030  190B883A    add r5, r3, r4
00000034  IL_0000000D:
00000034  11400115    stw r5, +4(r2)
00000038  IL_00000012:
00000038  1021883A    mov r16, r2
0000003C  00000000    call 0 R # Eclr.Environment.GetMicroTickCount()  (0000003C:4044:1)
00000040  IL_00000017:
00000040  E0BFFF15    stw r2, -4(fp)
00000044  00C00034    orhi r3, r0, 0 R # static TypeInfo Eclr.Pcos.Resource (00000044:18364:0)
00000048  18C00014    ori r3, r3, 0 # mov r3, 0
0000004C  1900110B    ldhu r4, +68(r3)
00000050  IL_0000001D:
00000050  E13FFE15    stw r4, -8(fp)
00000054  E0BFFE17    ldw r2, -8(fp)
00000058  1021883A    mov r16, r2
0000005C  IL_0000001F:
0000005C  8000071E    bne r16, r0, +28 # 0000007C
00000060  00800034    orhi r2, r0, 0 R # static TypeInfo Eclr.Pcos.Resource (00000060:18364:0)
00000064  10800014    ori r2, r2, 0 # mov r2, 0
00000068  10C00F17    ldw r3, +60(r2)
0000006C  E13FFF17    ldw r4, -4(fp)
00000070  IL_00000027:
00000070  20CBC83A    sub r5, r4, r3
00000074  IL_00000028:
00000074  E17FFE15    stw r5, -8(fp)
00000078  IL_0000002A:
00000078  11000F15    stw r4, +60(r2)
0000007C  IL_0000002F:
0000007C  00800004    addi r2, r0, +0 # movi r2, 0
00000080  IL_00000030:
00000080  E0BFFD05    stb r2, -12(fp)
00000084  00C00034    orhi r3, r0, 0 R # static TypeInfo Eclr.Pcos.Task (00000084:18440:0)
00000088  18C00014    ori r3, r3, 0 # mov r3, 0
0000008C  19000117    ldw r4, +4(r3)
00000090  IL_00000036:
00000090  E13FFC15    stw r4, -16(fp)
00000094  IL_00000037:
00000094  00006C06    br +432 # 00000248
00000098  IL_0000003C:
00000098  E0BFFC17    ldw r2, -16(fp)
0000009C  10C00203    ldbu r3, +8(r2)
000000A0  1021883A    mov r16, r2
000000A4  IL_00000042:
000000A4  1800251E    bne r3, r0, +148 # 0000013C
000000A8  E0BFFC17    ldw r2, -16(fp)
000000AC  10C0050B    ldhu r3, +20(r2)
000000B0  01000084    addi r4, r0, +2 # movi r4, 2
000000B4  1021883A    mov r16, r2
000000B8  IL_0000004B:
000000B8  19000D1E    bne r3, r4, +52 # 000000F0
000000BC  E0BFFC17    ldw r2, -16(fp)
000000C0  10C00803    ldbu r3, +32(r2)
000000C4  1021883A    mov r16, r2
000000C8  IL_00000053:
000000C8  18005C26    beq r3, r0, +368 # 0000023C
000000CC  00800004    addi r2, r0, +0 # movi r2, 0
000000D0  IL_0000005A:
000000D0  80800805    stb r2, +32(r16)
000000D4  80800C17    ldw r2, +48(r16)
000000D8  IL_00000066:
000000D8  80800D15    stw r2, +52(r16)
000000DC  00800044    addi r2, r0, +1 # movi r2, 1
000000E0  IL_0000006D:
000000E0  80800205    stb r2, +8(r16)
000000E4  8009883A    mov r4, r16
000000E8  IL_00000073:
000000E8  00000000    call 0 R # Eclr.Pcos.Task.Invoke()  (000000E8:7960:1)
000000EC  IL_00000078:
000000EC  00005306    br +332 # 0000023C
000000F0  IL_0000007D:
000000F0  E0BFFC17    ldw r2, -16(fp)
000000F4  10C00717    ldw r3, +28(r2)
000000F8  E13FFE17    ldw r4, -8(fp)
000000FC  IL_00000085:
000000FC  190BC83A    sub r5, r3, r4
00000100  IL_00000086:
00000100  11400715    stw r5, +28(r2)
00000104  00C00004    addi r3, r0, +0 # movi r3, 0
00000108  1021883A    mov r16, r2
0000010C  IL_00000092:
0000010C  19404B16    blt r3, r5, +300 # 0000023C
00000110  E0BFFC17    ldw r2, -16(fp)
00000114  10C00C17    ldw r3, +48(r2)
00000118  IL_0000009E:
00000118  10C00D15    stw r3, +52(r2)
0000011C  10C00617    ldw r3, +24(r2)
00000120  IL_000000AA:
00000120  10C00715    stw r3, +28(r2)
00000124  00C00044    addi r3, r0, +1 # movi r3, 1
00000128  IL_000000B1:
00000128  10C00205    stb r3, +8(r2)
0000012C  1009883A    mov r4, r2
00000130  IL_000000B7:
00000130  1021883A    mov r16, r2
00000134  00000000    call 0 R # Eclr.Pcos.Task.Invoke()  (00000134:7960:1)
00000138  IL_000000BC:
00000138  00004006    br +256 # 0000023C
0000013C  IL_000000C1:
0000013C  E0BFFC17    ldw r2, -16(fp)
00000140  10C0050B    ldhu r3, +20(r2)
00000144  01000104    addi r4, r0, +4 # movi r4, 4
00000148  1021883A    mov r16, r2
0000014C  IL_000000C8:
0000014C  19000226    beq r3, r4, +8 # 00000158
00000150  00800044    addi r2, r0, +1 # movi r2, 1
00000154  IL_000000CB:
00000154  E0BFFD05    stb r2, -12(fp)
00000158  IL_000000CC:
00000158  E0BFFC17    ldw r2, -16(fp)
0000015C  10C00717    ldw r3, +28(r2)
00000160  E13FFE17    ldw r4, -8(fp)
00000164  IL_000000D4:
00000164  190BC83A    sub r5, r3, r4
00000168  IL_000000D5:
00000168  11400715    stw r5, +28(r2)
0000016C  E0BFFC17    ldw r2, -16(fp)
00000170  10C00C17    ldw r3, +48(r2)
00000174  1021883A    mov r16, r2
00000178  IL_000000E0:
00000178  18003026    beq r3, r0, +192 # 0000023C
0000017C  80800D17    ldw r2, +52(r16)
00000180  E0FFFE17    ldw r3, -8(fp)
00000184  IL_000000EA:
00000184  10C9C83A    sub r4, r2, r3
00000188  IL_000000EB:
00000188  81000D15    stw r4, +52(r16)
0000018C  00800004    addi r2, r0, +0 # movi r2, 0
00000190  IL_000000F7:
00000190  20802A0E    bge r4, r2, +168 # 0000023C
00000194  00801584    addi r2, r0, +86 # movi r2, 86
00000198  100B883A    mov r5, r2
0000019C  E0BFE604    addi r2, fp, -104
000001A0  1009883A    mov r4, r2
000001A4  IL_000000FB:
000001A4  00000000    call 0 R # Eclr.Helper.Clear()  (000001A4:3348:1)
000001A8  E0BFE604    addi r2, fp, -104
000001AC  1009883A    mov r4, r2
000001B0  IL_00000103:
000001B0  00000000    call 0 R # System.Iec61131Lib.IecString80.ctor()  (000001B0:6388:1)
000001B4  E0BFFC17    ldw r2, -16(fp)
000001B8  10C00117    ldw r3, +4(r2)
000001BC  1809883A    mov r4, r3
000001C0  E0FFE604    addi r3, fp, -104
000001C4  180B883A    mov r5, r3
000001C8  IL_00000115:
000001C8  1021883A    mov r16, r2
000001CC  00000000    call 0 R # System.Iec61131Lib.IecStringEx.Copy()  (000001CC:6288:1)
000001D0  IL_00000120:
000001D0  00000000    call 0 R # Eclr.Pcos.PcosDomain.GetHandle()  (000001D0:7140:1)
000001D4  10BFFFCC    andi r2, r2, 65535
000001D8  E0FFE604    addi r3, fp, -104
000001DC  1809883A    mov r4, r3
000001E0  IL_00000131:
000001E0  1023883A    mov r17, r2
000001E4  00000000    call 0 R # System.Iec61131Lib.IecStringEx.GetIecString()  (000001E4:6244:1)
000001E8  E0FFE68F    ldh r3, -102(fp)
000001EC  01000044    addi r4, r0, +1 # movi r4, 1
000001F0  IL_00000143:
000001F0  1907883A    add r3, r3, r4
000001F4  18FFFFCC    andi r3, r3, 65535
000001F8  D8C00115    stw r3, +4(sp)
000001FC  D8800015    stw r2, +0(sp)
00000200  00804044    addi r2, r0, +257 # movi r2, 257
00000204  100F883A    mov r7, r2
00000208  880D883A    mov r6, r17
0000020C  00800044    addi r2, r0, +1 # movi r2, 1
00000210  100B883A    mov r5, r2
00000214  00800034    orhi r2, r0, 0
00000218  10A00014    ori r2, r2, 32768 # mov r2, 32768
0000021C  1009883A    mov r4, r2
00000220  IL_00000145:
00000220  00000000    call 0 R # Eclr.ErrorLog.SetError()  (00000220:5632:1)
00000224  00800004    addi r2, r0, +0 # movi r2, 0
00000228  IL_0000014C:
00000228  80800715    stw r2, +28(r16)
0000022C  00800104    addi r2, r0, +4 # movi r2, 4
00000230  1009883A    mov r4, r2
00000234  IL_00000152:
00000234  00000000    call 0 R # Eclr.Pcos.Resource.AbortProcess()  (00000234:7556:1)
00000238  IL_00000157:
00000238  00000606    br +24 # 00000254
0000023C  IL_00000159:
0000023C  E0BFFC17    ldw r2, -16(fp)
00000240  10C00E17    ldw r3, +56(r2)
00000244  IL_0000015F:
00000244  E0FFFC15    stw r3, -16(fp)
00000248  IL_00000160:
00000248  E0BFFC17    ldw r2, -16(fp)
0000024C  1021883A    mov r16, r2
00000250  IL_00000161:
00000250  803F911E    bne r16, r0, -444 # 00000098
00000254  IL_00000166:
00000254  E0BFFD03    ldbu r2, -12(fp)
00000258  1021883A    mov r16, r2
0000025C  IL_00000167:
0000025C  80000626    beq r16, r0, +24 # 00000278
00000260  00800034    orhi r2, r0, 0 R # static TypeInfo Eclr.Pcos.Resource (00000260:18364:0)
00000264  10800014    ori r2, r2, 0 # mov r2, 0
00000268  10C00717    ldw r3, +28(r2)
0000026C  E13FFE17    ldw r4, -8(fp)
00000270  IL_0000016F:
00000270  190B883A    add r5, r3, r4
00000274  IL_00000170:
00000274  11400715    stw r5, +28(r2)
00000278  IL_00000175:
00000278  00800034    orhi r2, r0, 0 R # static TypeInfo Eclr.Pcos.Resource (00000278:18364:0)
0000027C  10800014    ori r2, r2, 0 # mov r2, 0
00000280  10C00817    ldw r3, +32(r2)
00000284  E13FFF17    ldw r4, -4(fp)
00000288  IL_0000017B:
00000288  1907C83A    sub r3, r3, r4
0000028C  11400317    ldw r5, +12(r2)
00000290  1021883A    mov r16, r2
00000294  2023883A    mov r17, r4
00000298  IL_00000181:
00000298  28C01A2E    bgeu r5, r3, +104 # 00000304
0000029C  80800717    ldw r2, +28(r16)
000002A0  IL_00000188:
000002A0  80800415    stw r2, +16(r16)
000002A4  80C00317    ldw r3, +12(r16)
000002A8  IL_00000193:
000002A8  88C9883A    add r4, r17, r3
000002AC  IL_00000194:
000002AC  81000815    stw r4, +32(r16)
000002B0  00C00034    orhi r3, r0, 0 R # static TypeInfo Eclr.Pcos.Resource (000002B0:18364:0)
000002B4  18C00014    ori r3, r3, 0 # mov r3, 0
000002B8  19000B17    ldw r4, +44(r3)
000002BC  1823883A    mov r17, r3
000002C0  IL_000001A3:
000002C0  20800C2E    bgeu r4, r2, +48 # 000002F4
000002C4  IL_000001AB:
000002C4  00000000    call 0 R # Eclr.Pcos.PcosDomain.GetHandle()  (000002C4:7140:1)
000002C8  10BFFFCC    andi r2, r2, 65535
000002CC  100D883A    mov r6, r2
000002D0  00800084    addi r2, r0, +2 # movi r2, 2
000002D4  100B883A    mov r5, r2
000002D8  00800034    orhi r2, r0, 0
000002DC  10A00014    ori r2, r2, 32768 # mov r2, 32768
000002E0  1009883A    mov r4, r2
000002E4  IL_000001B0:
000002E4  00000000    call 0 R # Eclr.ErrorLog.SetError()  (000002E4:5664:1)
000002E8  00800144    addi r2, r0, +5 # movi r2, 5
000002EC  1009883A    mov r4, r2
000002F0  IL_000001B6:
000002F0  00000000    call 0 R # Eclr.Pcos.Resource.AbortProcess()  (000002F0:7556:1)
000002F4  IL_000001BB:
000002F4  00800004    addi r2, r0, +0 # movi r2, 0
000002F8  IL_000001BC:
000002F8  00C00034    orhi r3, r0, 0 R # static TypeInfo Eclr.Pcos.Resource (000002F8:18364:0)
000002FC  18C00014    ori r3, r3, 0 # mov r3, 0
00000300  18800715    stw r2, +28(r3)
00000304  IL_000001C1:
00000304  E7FFE517    ldw ra, -108(fp)
00000308  E43FE417    ldw r16, -112(fp)
0000030C  E47FE317    ldw r17, -116(fp)
00000310  DF001F17    ldw fp, +124(sp)
00000314  DEC02004    addi sp, sp, +128
00000318  DEC00104    addi sp, sp, +4
0000031C  F800283A    ret
# relocation table: 21 enties
00000320  02F8,47BC,0
00000324  02F0,1D84,1
00000328  02E4,1620,1
0000032C  02C4,1BE4,1
00000330  02B0,47BC,0
00000334  0278,47BC,0
00000338  0260,47BC,0
0000033C  0234,1D84,1
00000340  0220,1600,1
00000344  01E4,1864,1
00000348  01D0,1BE4,1
0000034C  01CC,1890,1
00000350  01B0,18F4,1
00000354  01A4,0D14,1
00000358  0134,1F18,1
0000035C  00E8,1F18,1
00000360  0084,4808,0
00000364  0060,47BC,0
00000368  0044,47BC,0
0000036C  003C,0FCC,1
00000370  0020,47A8,0

static void Eclr.Pcos.Resource.RaiseTaskEvent(System.UInt16)
# size: 88
# offset: 00005A9C
00000000  DEFFFF04    addi sp, sp, -4
00000004  DFC00015    stw ra, +0(sp)
00000008  DEFFFC04    addi sp, sp, -16
0000000C  DF000315    stw fp, +12(sp)
00000010  DF000304    addi fp, sp, +12
00000014  E7FFFE15    stw ra, -8(fp)
00000018  E43FFD15    stw r16, -12(fp)
0000001C  2021883A    mov r16, r4
00000020  8009883A    mov r4, r16
00000024  IL_00000001:
00000024  00000000    call 0 R # Eclr.Pcos.Resource.GetTaskEvent()  (00000024:7696:1)
00000028  IL_00000006:
00000028  E0BFFF15    stw r2, -4(fp)
0000002C  E0BFFF17    ldw r2, -4(fp)
00000030  1021883A    mov r16, r2
00000034  IL_00000008:
00000034  80000226    beq r16, r0, +8 # 00000040
00000038  00800044    addi r2, r0, +1 # movi r2, 1
0000003C  IL_0000000C:
0000003C  80800805    stb r2, +32(r16)
00000040  IL_00000011:
00000040  E7FFFE17    ldw ra, -8(fp)
00000044  E43FFD17    ldw r16, -12(fp)
00000048  DF000317    ldw fp, +12(sp)
0000004C  DEC00404    addi sp, sp, +16
00000050  DEC00104    addi sp, sp, +4
00000054  F800283A    ret
# relocation table: 1 enties
00000058  0024,1E10,1

static Eclr.Pcos.Task Eclr.Pcos.Resource.GetTaskEvent(System.UInt16)
# size: 164
# offset: 00005B0C
00000000  DEFFFF04    addi sp, sp, -4
00000004  DFC00015    stw ra, +0(sp)
00000008  DEFFFA04    addi sp, sp, -24
0000000C  DF000515    stw fp, +20(sp)
00000010  DF000504    addi fp, sp, +20
00000014  E7FFFD15    stw ra, -12(fp)
00000018  E43FFC15    stw r16, -16(fp)
0000001C  E47FFB15    stw r17, -20(fp)
00000020  2021883A    mov r16, r4
00000024  00800004    addi r2, r0, +0 # movi r2, 0
00000028  IL_00000001:
00000028  E0BFFF15    stw r2, -4(fp)
0000002C  00C00034    orhi r3, r0, 0 R # static TypeInfo Eclr.Pcos.Task (0000002C:18440:0)
00000030  18C00014    ori r3, r3, 0 # mov r3, 0
00000034  19000117    ldw r4, +4(r3)
00000038  IL_00000007:
00000038  E13FFE15    stw r4, -8(fp)
0000003C  IL_00000008:
0000003C  00000E06    br +56 # 00000078
00000040  IL_0000000A:
00000040  E0BFFE17    ldw r2, -8(fp)
00000044  10C0050B    ldhu r3, +20(r2)
00000048  01000084    addi r4, r0, +2 # movi r4, 2
0000004C  1023883A    mov r17, r2
00000050  IL_00000011:
00000050  1900061E    bne r3, r4, +24 # 0000006C
00000054  E0BFFE17    ldw r2, -8(fp)
00000058  10C0088B    ldhu r3, +34(r2)
0000005C  1023883A    mov r17, r2
00000060  IL_0000001A:
00000060  1C00021E    bne r3, r16, +8 # 0000006C
00000064  IL_0000001D:
00000064  E47FFF15    stw r17, -4(fp)
00000068  IL_0000001E:
00000068  00000606    br +24 # 00000084
0000006C  IL_00000020:
0000006C  E0BFFE17    ldw r2, -8(fp)
00000070  10C00E17    ldw r3, +56(r2)
00000074  IL_00000026:
00000074  E0FFFE15    stw r3, -8(fp)
00000078  IL_00000027:
00000078  E0BFFE17    ldw r2, -8(fp)
0000007C  1023883A    mov r17, r2
00000080  IL_00000028:
00000080  883FEF1E    bne r17, r0, -68 # 00000040
00000084  IL_0000002A:
00000084  E0BFFF17    ldw r2, -4(fp)
00000088  E7FFFD17    ldw ra, -12(fp)
0000008C  E43FFC17    ldw r16, -16(fp)
00000090  E47FFB17    ldw r17, -20(fp)
00000094  DF000517    ldw fp, +20(sp)
00000098  DEC00604    addi sp, sp, +24
0000009C  DEC00104    addi sp, sp, +4
000000A0  F800283A    ret
# relocation table: 1 enties
000000A4  002C,4808,0

static void Eclr.Pcos.Resource.CallSystemEventCB(System.UInt16)
# size: 136
# offset: 00005BC8
00000000  DEFFFF04    addi sp, sp, -4
00000004  DFC00015    stw ra, +0(sp)
00000008  DEFFFB04    addi sp, sp, -20
0000000C  DF000415    stw fp, +16(sp)
00000010  DF000404    addi fp, sp, +16
00000014  E7FFFE15    stw ra, -8(fp)
00000018  E43FFD15    stw r16, -12(fp)
0000001C  E47FFC15    stw r17, -16(fp)
00000020  2021883A    mov r16, r4
00000024  00800034    orhi r2, r0, 0 R # static TypeInfo Eclr.Pcos.Resource (00000024:18364:0)
00000028  10800014    ori r2, r2, 0 # mov r2, 0
0000002C  10C0020B    ldhu r3, +8(r2)
00000030  1023883A    mov r17, r2
00000034  IL_00000006:
00000034  80C00D0E    bge r16, r3, +52 # 0000006C
00000038  88800117    ldw r2, +4(r17)
0000003C  10C00117    ldw r3, +4(r2)
00000040  80C00136    bltu r16, r3, +4 # 00000048
00000044  00000000    call 0 R # Eclr.Helper.bound()  (00000044:3384:1)
00000048  802090BA    slli r16, r16, 2
0000004C  80A1883A    add r16, r16, r2
00000050  80800217    ldw r2, +8(r16)
00000054  IL_0000000F:
00000054  E0BFFF15    stw r2, -4(fp)
00000058  E0BFFF17    ldw r2, -4(fp)
0000005C  1021883A    mov r16, r2
00000060  IL_00000011:
00000060  80000226    beq r16, r0, +8 # 0000006C
00000064  8009883A    mov r4, r16
00000068  IL_00000014:
00000068  00000000    call 0 R # Eclr.Pcos.Event.Invoke()  (00000068:6956:1)
0000006C  IL_00000019:
0000006C  E7FFFE17    ldw ra, -8(fp)
00000070  E43FFD17    ldw r16, -12(fp)
00000074  E47FFC17    ldw r17, -16(fp)
00000078  DF000417    ldw fp, +16(sp)
0000007C  DEC00504    addi sp, sp, +20
00000080  DEC00104    addi sp, sp, +4
00000084  F800283A    ret
# relocation table: 3 enties
00000088  0068,1B2C,1
0000008C  0044,0D38,1
00000090  0024,47BC,0

static void Eclr.Pcos.Resource..cctor()
# size: 68
# offset: 00005C70
00000000  DEFFFF04    addi sp, sp, -4
00000004  DFC00015    stw ra, +0(sp)
00000008  DEFFFE04    addi sp, sp, -8
0000000C  DF000115    stw fp, +4(sp)
00000010  DF000104    addi fp, sp, +4
00000014  E7FFFF15    stw ra, -4(fp)
00000018  00800004    addi r2, r0, +0 # movi r2, 0
0000001C  IL_00000001:
0000001C  00C00034    orhi r3, r0, 0 R # static TypeInfo Eclr.Pcos.Resource (0000001C:18364:0)
00000020  18C00014    ori r3, r3, 0 # mov r3, 0
00000024  18801005    stb r2, +64(r3)
00000028  00800044    addi r2, r0, +1 # movi r2, 1
0000002C  IL_00000007:
0000002C  1880108D    sth r2, +66(r3)
00000030  IL_0000000C:
00000030  E7FFFF17    ldw ra, -4(fp)
00000034  DF000117    ldw fp, +4(sp)
00000038  DEC00204    addi sp, sp, +8
0000003C  DEC00104    addi sp, sp, +4
00000040  F800283A    ret
# relocation table: 1 enties
00000044  001C,47BC,0

void Eclr.Pcos.Task..ctor(System.String,Eclr.Pcos.TaskType,System.UInt16,Eclr.Pcos.TInfo*)
# size: 436
# offset: 00005CCC
00000000  DEFFFF04    addi sp, sp, -4
00000004  DFC00015    stw ra, +0(sp)
00000008  DEFFF904    addi sp, sp, -28
0000000C  DF000615    stw fp, +24(sp)
00000010  DF000604    addi fp, sp, +24
00000014  E7FFFE15    stw ra, -8(fp)
00000018  E43FFD15    stw r16, -12(fp)
0000001C  E47FFC15    stw r17, -16(fp)
00000020  E4BFFB15    stw r18, -20(fp)
00000024  E4FFFA15    stw r19, -24(fp)
00000028  E13FFF15    stw r4, -4(fp)
0000002C  2021883A    mov r16, r4
00000030  2823883A    mov r17, r5
00000034  3025883A    mov r18, r6
00000038  3827883A    mov r19, r7
0000003C  8009883A    mov r4, r16
00000040  IL_00000001:
00000040  00000000    call 0 R # Eclr.DcgNonGeneric..ctor()  (00000040:4148:1)
00000044  IL_00000008:
00000044  84400115    stw r17, +4(r16)
00000048  IL_0000000F:
00000048  8480050D    sth r18, +20(r16)
0000004C  IL_00000016:
0000004C  84C00A0D    sth r19, +40(r16)
00000050  E0800217    ldw r2, +8(fp)
00000054  IL_0000001E:
00000054  80800B15    stw r2, +44(r16)
00000058  00800034    orhi r2, r0, 0 R # static TypeInfo Eclr.Pcos.Resource (00000058:18364:0)
0000005C  10800014    ori r2, r2, 0 # mov r2, 0
00000060  10C01003    ldbu r3, +64(r2)
00000064  1023883A    mov r17, r2
00000068  IL_00000028:
00000068  18002726    beq r3, r0, +156 # 00000108
0000006C  80800A0B    ldhu r2, +40(r16)
00000070  00C00484    addi r3, r0, +18 # movi r3, 18
00000074  IL_00000032:
00000074  1880020E    bge r3, r2, +8 # 00000080
00000078  00800484    addi r2, r0, +18 # movi r2, 18
0000007C  IL_00000037:
0000007C  80800A0D    sth r2, +40(r16)
00000080  IL_0000003C:
00000080  00800034    orhi r2, r0, 0 R # System.Threading.AutoResetEvent class (00000080:2336:0)
00000084  10800014    ori r2, r2, 0 # mov r2, 0
00000088  1009883A    mov r4, r2
0000008C  IL_0000003E:
0000008C  00000000    call 0 R # Eclr.GCHeap.newobj()  (0000008C:3920:1)
00000090  1009883A    mov r4, r2
00000094  00C00004    addi r3, r0, +0 # movi r3, 0
00000098  180B883A    mov r5, r3
0000009C  1023883A    mov r17, r2
000000A0  00000000    call 0 R # System.Threading.AutoResetEvent..ctor()  (000000A0:2380:1)
000000A4  IL_00000043:
000000A4  84400915    stw r17, +36(r16)
000000A8  00800034    orhi r2, r0, 0 R # System.Threading.ThreadStart class (000000A8:1640:0)
000000AC  10800014    ori r2, r2, 0 # mov r2, 0
000000B0  1009883A    mov r4, r2
000000B4  IL_00000050:
000000B4  00000000    call 0 R # Eclr.GCHeap.newobj()  (000000B4:3920:1)
000000B8  1009883A    mov r4, r2
000000BC  800B883A    mov r5, r16
000000C0  00C00034    orhi r3, r0, 0 R # Eclr.Pcos.Task.taskBody()  (000000C0:8152:0)
000000C4  18C00014    ori r3, r3, 0 # mov r3, 0
000000C8  180D883A    mov r6, r3
000000CC  1023883A    mov r17, r2
000000D0  00000000    call 0 R # System.MulticastDelegate..ctor()  (000000D0:1300:1)
000000D4  00800034    orhi r2, r0, 0 R # System.Threading.Thread class (000000D4:1720:0)
000000D8  10800014    ori r2, r2, 0 # mov r2, 0
000000DC  1009883A    mov r4, r2
000000E0  IL_00000055:
000000E0  00000000    call 0 R # Eclr.GCHeap.newobj()  (000000E0:3920:1)
000000E4  880B883A    mov r5, r17
000000E8  1009883A    mov r4, r2
000000EC  1023883A    mov r17, r2
000000F0  00000000    call 0 R # System.Threading.Thread..ctor()  (000000F0:1784:1)
000000F4  IL_0000005A:
000000F4  84400315    stw r17, +12(r16)
000000F8  80800A0B    ldhu r2, +40(r16)
000000FC  100B883A    mov r5, r2
00000100  8809883A    mov r4, r17
00000104  IL_0000006B:
00000104  00000000    call 0 R # System.Threading.Thread.set_Priority()  (00000104:1888:1)
00000108  IL_00000070:
00000108  80800B17    ldw r2, +44(r16)
0000010C  00C00004    addi r3, r0, +0 # movi r3, 0
00000110  IL_00000078:
00000110  10C01D26    beq r2, r3, +116 # 00000188
00000114  008008C4    addi r2, r0, +35 # movi r2, 35
00000118  IL_0000008A:
00000118  80C00B17    ldw r3, +44(r16)
0000011C  1880160D    sth r2, +88(r3)
00000120  18801604    addi r2, r3, +88
00000124  1009883A    mov r4, r2
00000128  80800117    ldw r2, +4(r16)
0000012C  100B883A    mov r5, r2
00000130  IL_000000A0:
00000130  00000000    call 0 R # System.Iec61131Lib.IecStringEx.Init()  (00000130:6328:1)
00000134  80800A0B    ldhu r2, +40(r16)
00000138  00C00484    addi r3, r0, +18 # movi r3, 18
0000013C  IL_000000B3:
0000013C  1887C83A    sub r3, r3, r2
00000140  IL_000000B5:
00000140  80800B17    ldw r2, +44(r16)
00000144  10C0008D    sth r3, +2(r2)
00000148  00C00004    addi r3, r0, +0 # movi r3, 0
0000014C  IL_000000C1:
0000014C  10C00915    stw r3, +36(r2)
00000150  013FFFC4    addi r4, r0, -1 # movi r4, -1
00000154  IL_000000CD:
00000154  11000715    stw r4, +28(r2)
00000158  IL_000000D9:
00000158  10C00815    stw r3, +32(r2)
0000015C  IL_000000E5:
0000015C  10C00C8D    sth r3, +50(r2)
00000160  01400034    orhi r5, r0, 0
00000164  297FFFD4    ori r5, r5, 65535 # mov r5, 65535
00000168  IL_000000F5:
00000168  11400B8D    sth r5, +46(r2)
0000016C  IL_00000101:
0000016C  10C00C0D    sth r3, +48(r2)
00000170  IL_0000010D:
00000170  10C00615    stw r3, +24(r2)
00000174  IL_00000119:
00000174  11000415    stw r4, +16(r2)
00000178  IL_00000125:
00000178  10C00515    stw r3, +20(r2)
0000017C  IL_00000131:
0000017C  10C00B0D    sth r3, +44(r2)
00000180  IL_00000141:
00000180  11400A0D    sth r5, +40(r2)
00000184  IL_0000014D:
00000184  10C00A8D    sth r3, +42(r2)
00000188  IL_00000152:
00000188  8009883A    mov r4, r16
0000018C  IL_00000153:
0000018C  00000000    call 0 R # Eclr.Pcos.Task.insertTask()  (0000018C:8172:1)
00000190  IL_00000158:
00000190  E7FFFE17    ldw ra, -8(fp)
00000194  E43FFD17    ldw r16, -12(fp)
00000198  E47FFC17    ldw r17, -16(fp)
0000019C  E4BFFB17    ldw r18, -20(fp)
000001A0  E4FFFA17    ldw r19, -24(fp)
000001A4  DF000617    ldw fp, +24(sp)
000001A8  DEC00704    addi sp, sp, +28
000001AC  DEC00104    addi sp, sp, +4
000001B0  F800283A    ret
# relocation table: 15 enties
000001B4  018C,1FEC,1
000001B8  0130,18B8,1
000001BC  0104,0760,1
000001C0  00F0,06F8,1
000001C4  00E0,0F50,1
000001C8  00D4,06B8,0
000001CC  00D0,0514,1
000001D0  00C0,1FD8,0
000001D4  00B4,0F50,1
000001D8  00A8,0668,0
000001DC  00A0,094C,1
000001E0  008C,0F50,1
000001E4  0080,0920,0
000001E8  0058,47BC,0
000001EC  0040,1034,1

void Eclr.Pcos.Task.Invoke()
# size: 96
# offset: 00005ED0
00000000  DEFFFF04    addi sp, sp, -4
00000004  DFC00015    stw ra, +0(sp)
00000008  DEFFFC04    addi sp, sp, -16
0000000C  DF000315    stw fp, +12(sp)
00000010  DF000304    addi fp, sp, +12
00000014  E7FFFE15    stw ra, -8(fp)
00000018  E43FFD15    stw r16, -12(fp)
0000001C  E13FFF15    stw r4, -4(fp)
00000020  2021883A    mov r16, r4
00000024  80800917    ldw r2, +36(r16)
00000028  IL_00000006:
00000028  10000526    beq r2, r0, +20 # 00000040
0000002C  80800917    ldw r2, +36(r16)
00000030  1009883A    mov r4, r2
00000034  IL_0000000E:
00000034  00000000    call 0 R # System.Threading.EventWaitHandle.Set()  (00000034:2280:1)
00000038  1080004C    andi r2, r2, 1
0000003C  IL_00000014:
0000003C  00000206    br +8 # 00000048
00000040  IL_00000015:
00000040  8009883A    mov r4, r16
00000044  IL_00000016:
00000044  00000000    call 0 R # Eclr.Pcos.Task.Process()  (00000044:7976:1)
00000048  IL_0000001B:
00000048  E7FFFE17    ldw ra, -8(fp)
0000004C  E43FFD17    ldw r16, -12(fp)
00000050  DF000317    ldw fp, +12(sp)
00000054  DEC00404    addi sp, sp, +16
00000058  DEC00104    addi sp, sp, +4
0000005C  F800283A    ret
# relocation table: 2 enties
00000060  0044,1F28,1
00000064  0034,08E8,1

void Eclr.Pcos.Task.Process()
# size: 656
# offset: 00005F4C
00000000  DEFFFF04    addi sp, sp, -4
00000004  DFC00015    stw ra, +0(sp)
00000008  DEFFF604    addi sp, sp, -40
0000000C  DF000915    stw fp, +36(sp)
00000010  DF000904    addi fp, sp, +36
00000014  E7FFFA15    stw ra, -24(fp)
00000018  E43FF915    stw r16, -28(fp)
0000001C  E47FF815    stw r17, -32(fp)
00000020  E4BFF715    stw r18, -36(fp)
00000024  E13FFF15    stw r4, -4(fp)
00000028  2021883A    mov r16, r4
0000002C  IL_00000000:
0000002C  00000000    call 0 R # Eclr.Environment.GetMicroTickCount()  (0000002C:4044:1)
00000030  IL_00000005:
00000030  E0BFFE15    stw r2, -8(fp)
00000034  00C00004    addi r3, r0, +0 # movi r3, 0
00000038  IL_00000008:
00000038  80C00845    stb r3, +33(r16)
0000003C  80800B17    ldw r2, +44(r16)
00000040  IL_00000015:
00000040  10C02D26    beq r2, r3, +180 # 000000F8
00000044  80800717    ldw r2, +28(r16)
00000048  80C00617    ldw r3, +24(r16)
0000004C  IL_00000026:
0000004C  1887C83A    sub r3, r3, r2
00000050  IL_00000027:
00000050  E0FFFD15    stw r3, -12(fp)
00000054  80800B17    ldw r2, +44(r16)
00000058  10C00717    ldw r3, +28(r2)
0000005C  E13FFD17    ldw r4, -12(fp)
00000060  2023883A    mov r17, r4
00000064  1025883A    mov r18, r2
00000068  IL_00000034:
00000068  88C0022E    bgeu r17, r3, +8 # 00000074
0000006C  IL_0000003D:
0000006C  80800B17    ldw r2, +44(r16)
00000070  14400715    stw r17, +28(r2)
00000074  IL_00000042:
00000074  80800B17    ldw r2, +44(r16)
00000078  10C00817    ldw r3, +32(r2)
0000007C  E13FFD17    ldw r4, -12(fp)
00000080  2023883A    mov r17, r4
00000084  1025883A    mov r18, r2
00000088  IL_0000004E:
00000088  1C40022E    bgeu r3, r17, +8 # 00000094
0000008C  IL_00000057:
0000008C  80800B17    ldw r2, +44(r16)
00000090  14400815    stw r17, +32(r2)
00000094  IL_0000005C:
00000094  E0BFFD17    ldw r2, -12(fp)
00000098  IL_00000063:
00000098  80C00B17    ldw r3, +44(r16)
0000009C  18800915    stw r2, +36(r3)
000000A0  00800034    orhi r2, r0, 0 R # static TypeInfo Eclr.Pcos.M2_1 (000000A0:18332:0)
000000A4  10800014    ori r2, r2, 0 # mov r2, 0
000000A8  10C00103    ldbu r3, +4(r2)
000000AC  1023883A    mov r17, r2
000000B0  IL_00000072:
000000B0  1800111E    bne r3, r0, +68 # 000000F8
000000B4  80800B17    ldw r2, +44(r16)
000000B8  10C00717    ldw r3, +28(r2)
000000BC  0100FA04    addi r4, r0, +1000 # movi r4, 1000
000000C0  IL_0000008A:
000000C0  2000011E    bne r4, r0, +4 # 000000C8
000000C4  00000000    call 0 R # Eclr.Helper.div0()  (000000C4:3368:1)
000000C8  1907203A    divu r3, r3, r4
000000CC  IL_0000008C:
000000CC  10C00B8D    sth r3, +46(r2)
000000D0  10C00817    ldw r3, +32(r2)
000000D4  IL_000000A7:
000000D4  2000011E    bne r4, r0, +4 # 000000DC
000000D8  00000000    call 0 R # Eclr.Helper.div0()  (000000D8:3368:1)
000000DC  1907203A    divu r3, r3, r4
000000E0  IL_000000A9:
000000E0  10C00C0D    sth r3, +48(r2)
000000E4  10C00917    ldw r3, +36(r2)
000000E8  IL_000000C4:
000000E8  2000011E    bne r4, r0, +4 # 000000F0
000000EC  00000000    call 0 R # Eclr.Helper.div0()  (000000EC:3368:1)
000000F0  1907203A    divu r3, r3, r4
000000F4  IL_000000C6:
000000F4  10C00C8D    sth r3, +50(r2)
000000F8  IL_000000CB:
000000F8  80800417    ldw r2, +16(r16)
000000FC  1009883A    mov r4, r2
00000100  IL_000000D1:
00000100  00000000    call 0 R # System.Threading.ThreadStart.Invoke()  (00000100:1700:1)
00000104  IL_000000D6:
00000104  00000000    call 0 R # Eclr.Environment.GetMicroTickCount()  (00000104:4044:1)
00000108  E0FFFE17    ldw r3, -8(fp)
0000010C  IL_000000DC:
0000010C  10C5C83A    sub r2, r2, r3
00000110  IL_000000DD:
00000110  E0BFFC15    stw r2, -16(fp)
00000114  80800B17    ldw r2, +44(r16)
00000118  00C00004    addi r3, r0, +0 # movi r3, 0
0000011C  IL_000000E6:
0000011C  10C02926    beq r2, r3, +164 # 000001C4
00000120  80800B17    ldw r2, +44(r16)
00000124  10C00417    ldw r3, +16(r2)
00000128  E13FFC17    ldw r4, -16(fp)
0000012C  2023883A    mov r17, r4
00000130  1025883A    mov r18, r2
00000134  IL_000000F7:
00000134  88C0022E    bgeu r17, r3, +8 # 00000140
00000138  IL_00000100:
00000138  80800B17    ldw r2, +44(r16)
0000013C  14400415    stw r17, +16(r2)
00000140  IL_00000105:
00000140  80800B17    ldw r2, +44(r16)
00000144  10C00517    ldw r3, +20(r2)
00000148  E13FFC17    ldw r4, -16(fp)
0000014C  2023883A    mov r17, r4
00000150  1025883A    mov r18, r2
00000154  IL_00000111:
00000154  1C40022E    bgeu r3, r17, +8 # 00000160
00000158  IL_0000011A:
00000158  80800B17    ldw r2, +44(r16)
0000015C  14400515    stw r17, +20(r2)
00000160  IL_0000011F:
00000160  E0BFFC17    ldw r2, -16(fp)
00000164  IL_00000126:
00000164  80C00B17    ldw r3, +44(r16)
00000168  18800615    stw r2, +24(r3)
0000016C  00800034    orhi r2, r0, 0 R # static TypeInfo Eclr.Pcos.M2_1 (0000016C:18332:0)
00000170  10800014    ori r2, r2, 0 # mov r2, 0
00000174  10C00103    ldbu r3, +4(r2)
00000178  1023883A    mov r17, r2
0000017C  IL_00000135:
0000017C  1800111E    bne r3, r0, +68 # 000001C4
00000180  80800B17    ldw r2, +44(r16)
00000184  10C00417    ldw r3, +16(r2)
00000188  0100FA04    addi r4, r0, +1000 # movi r4, 1000
0000018C  IL_0000014D:
0000018C  2000011E    bne r4, r0, +4 # 00000194
00000190  00000000    call 0 R # Eclr.Helper.div0()  (00000190:3368:1)
00000194  1907203A    divu r3, r3, r4
00000198  IL_0000014F:
00000198  10C00A0D    sth r3, +40(r2)
0000019C  10C00517    ldw r3, +20(r2)
000001A0  IL_0000016A:
000001A0  2000011E    bne r4, r0, +4 # 000001A8
000001A4  00000000    call 0 R # Eclr.Helper.div0()  (000001A4:3368:1)
000001A8  1907203A    divu r3, r3, r4
000001AC  IL_0000016C:
000001AC  10C00A8D    sth r3, +42(r2)
000001B0  10C00617    ldw r3, +24(r2)
000001B4  IL_00000187:
000001B4  2000011E    bne r4, r0, +4 # 000001BC
000001B8  00000000    call 0 R # Eclr.Helper.div0()  (000001B8:3368:1)
000001BC  1907203A    divu r3, r3, r4
000001C0  IL_00000189:
000001C0  10C00B0D    sth r3, +44(r2)
000001C4  IL_0000018E:
000001C4  8080050B    ldhu r2, +20(r16)
000001C8  00C000C4    addi r3, r0, +3 # movi r3, 3
000001CC  IL_00000195:
000001CC  10C0211E    bne r2, r3, +132 # 00000254
000001D0  00800034    orhi r2, r0, 0 R # static TypeInfo Eclr.Pcos.Resource (000001D0:18364:0)
000001D4  10800014    ori r2, r2, 0 # mov r2, 0
000001D8  10C00C17    ldw r3, +48(r2)
000001DC  11000D17    ldw r4, +52(r2)
000001E0  IL_000001A2:
000001E0  1907C83A    sub r3, r3, r4
000001E4  E17FFC17    ldw r5, -16(fp)
000001E8  IL_000001A3:
000001E8  28CD383A    mul r6, r5, r3
000001EC  IL_000001A9:
000001EC  2000011E    bne r4, r0, +4 # 000001F4
000001F0  00000000    call 0 R # Eclr.Helper.div0()  (000001F0:3368:1)
000001F4  310D203A    divu r6, r6, r4
000001F8  IL_000001AA:
000001F8  E1BFFB15    stw r6, -20(fp)
000001FC  00800034    orhi r2, r0, 0 R # static TypeInfo Eclr.Pcos.Resource (000001FC:18364:0)
00000200  10800014    ori r2, r2, 0 # mov r2, 0
00000204  10C00917    ldw r3, +36(r2)
00000208  E13FFB17    ldw r4, -20(fp)
0000020C  2023883A    mov r17, r4
00000210  1025883A    mov r18, r2
00000214  IL_000001B1:
00000214  88C0022E    bgeu r17, r3, +8 # 00000220
00000218  90800917    ldw r2, +36(r18)
0000021C  IL_000001B8:
0000021C  E0BFFB15    stw r2, -20(fp)
00000220  IL_000001B9:
00000220  E0BFFB17    ldw r2, -20(fp)
00000224  IL_000001BB:
00000224  80800715    stw r2, +28(r16)
00000228  E0FFFC17    ldw r3, -16(fp)
0000022C  IL_000001C3:
0000022C  1889883A    add r4, r3, r2
00000230  IL_000001C4:
00000230  81000615    stw r4, +24(r16)
00000234  IL_000001CF:
00000234  01400034    orhi r5, r0, 0 R # static TypeInfo Eclr.Pcos.Resource (00000234:18364:0)
00000238  29400014    ori r5, r5, 0 # mov r5, 0
0000023C  29000615    stw r4, +24(r5)
00000240  80800843    ldbu r2, +33(r16)
00000244  IL_000001DA:
00000244  10000326    beq r2, r0, +12 # 00000254
00000248  00800044    addi r2, r0, +1 # movi r2, 1
0000024C  IL_000001DE:
0000024C  80800715    stw r2, +28(r16)
00000250  IL_000001E5:
00000250  80800615    stw r2, +24(r16)
00000254  IL_000001EA:
00000254  00800004    addi r2, r0, +0 # movi r2, 0
00000258  IL_000001EC:
00000258  80800205    stb r2, +8(r16)
0000025C  80800F17    ldw r2, +60(r16)
00000260  IL_000001F7:
00000260  10000326    beq r2, r0, +12 # 00000270
00000264  80800F17    ldw r2, +60(r16)
00000268  1009883A    mov r4, r2
0000026C  IL_000001FF:
0000026C  00000000    call 0 R # System.Threading.ThreadStart.Invoke()  (0000026C:1700:1)
00000270  IL_00000204:
00000270  E7FFFA17    ldw ra, -24(fp)
00000274  E43FF917    ldw r16, -28(fp)
00000278  E47FF817    ldw r17, -32(fp)
0000027C  E4BFF717    ldw r18, -36(fp)
00000280  DF000917    ldw fp, +36(sp)
00000284  DEC00A04    addi sp, sp, +40
00000288  DEC00104    addi sp, sp, +4
0000028C  F800283A    ret
# relocation table: 16 enties
00000290  026C,06A4,1
00000294  0234,47BC,0
00000298  01FC,47BC,0
0000029C  01F0,0D28,1
000002A0  01D0,47BC,0
000002A4  01B8,0D28,1
000002A8  01A4,0D28,1
000002AC  0190,0D28,1
000002B0  016C,479C,0
000002B4  0104,0FCC,1
000002B8  0100,06A4,1
000002BC  00EC,0D28,1
000002C0  00D8,0D28,1
000002C4  00C4,0D28,1
000002C8  00A0,479C,0
000002CC  002C,0FCC,1

void Eclr.Pcos.Task.Start()
# size: 88
# offset: 00006230
00000000  DEFFFF04    addi sp, sp, -4
00000004  DFC00015    stw ra, +0(sp)
00000008  DEFFFC04    addi sp, sp, -16
0000000C  DF000315    stw fp, +12(sp)
00000010  DF000304    addi fp, sp, +12
00000014  E7FFFE15    stw ra, -8(fp)
00000018  E43FFD15    stw r16, -12(fp)
0000001C  E13FFF15    stw r4, -4(fp)
00000020  2021883A    mov r16, r4
00000024  80800C17    ldw r2, +48(r16)
00000028  IL_00000007:
00000028  80800D15    stw r2, +52(r16)
0000002C  80800317    ldw r2, +12(r16)
00000030  IL_00000012:
00000030  10000326    beq r2, r0, +12 # 00000040
00000034  80800317    ldw r2, +12(r16)
00000038  1009883A    mov r4, r2
0000003C  IL_0000001A:
0000003C  00000000    call 0 R # System.Threading.Thread.Start()  (0000003C:1800:1)
00000040  IL_0000001F:
00000040  E7FFFE17    ldw ra, -8(fp)
00000044  E43FFD17    ldw r16, -12(fp)
00000048  DF000317    ldw fp, +12(sp)
0000004C  DEC00404    addi sp, sp, +16
00000050  DEC00104    addi sp, sp, +4
00000054  F800283A    ret
# relocation table: 1 enties
00000058  003C,0708,1

void Eclr.Pcos.Task.Halt()
# size: 56
# offset: 000062A0
00000000  DEFFFF04    addi sp, sp, -4
00000004  DFC00015    stw ra, +0(sp)
00000008  DEFFFD04    addi sp, sp, -12
0000000C  DF000215    stw fp, +8(sp)
00000010  DF000204    addi fp, sp, +8
00000014  E7FFFE15    stw ra, -8(fp)
00000018  E13FFF15    stw r4, -4(fp)
0000001C  00800044    addi r2, r0, +1 # movi r2, 1
00000020  IL_00000002:
00000020  20800845    stb r2, +33(r4)
00000024  IL_00000007:
00000024  E7FFFE17    ldw ra, -8(fp)
00000028  DF000217    ldw fp, +8(sp)
0000002C  DEC00304    addi sp, sp, +12
00000030  DEC00104    addi sp, sp, +4
00000034  F800283A    ret

void Eclr.Pcos.Task.SetWatchdog(System.UInt32)
# size: 120
# offset: 000062EC
00000000  DEFFFF04    addi sp, sp, -4
00000004  DFC00015    stw ra, +0(sp)
00000008  DEFFFB04    addi sp, sp, -20
0000000C  DF000415    stw fp, +16(sp)
00000010  DF000404    addi fp, sp, +16
00000014  E7FFFE15    stw ra, -8(fp)
00000018  E43FFD15    stw r16, -12(fp)
0000001C  E47FFC15    stw r17, -16(fp)
00000020  E13FFF15    stw r4, -4(fp)
00000024  2021883A    mov r16, r4
00000028  2823883A    mov r17, r5
0000002C  IL_00000002:
0000002C  84400C15    stw r17, +48(r16)
00000030  80800B17    ldw r2, +44(r16)
00000034  00C00004    addi r3, r0, +0 # movi r3, 0
00000038  IL_0000000F:
00000038  10C00826    beq r2, r3, +32 # 0000005C
0000003C  80800C17    ldw r2, +48(r16)
00000040  00C0FA04    addi r3, r0, +1000 # movi r3, 1000
00000044  IL_00000022:
00000044  1800011E    bne r3, r0, +4 # 0000004C
00000048  00000000    call 0 R # Eclr.Helper.div0()  (00000048:3368:1)
0000004C  10C9203A    divu r4, r2, r3
00000050  IL_00000024:
00000050  80C00B17    ldw r3, +44(r16)
00000054  1900038D    sth r4, +14(r3)
00000058  IL_00000035:
00000058  18800215    stw r2, +8(r3)
0000005C  IL_0000003A:
0000005C  E7FFFE17    ldw ra, -8(fp)
00000060  E43FFD17    ldw r16, -12(fp)
00000064  E47FFC17    ldw r17, -16(fp)
00000068  DF000417    ldw fp, +16(sp)
0000006C  DEC00504    addi sp, sp, +20
00000070  DEC00104    addi sp, sp, +4
00000074  F800283A    ret
# relocation table: 1 enties
00000078  0048,0D28,1

void Eclr.Pcos.Task.SetEndOfTaskCB(System.Threading.ThreadStart)
# size: 52
# offset: 0000637C
00000000  DEFFFF04    addi sp, sp, -4
00000004  DFC00015    stw ra, +0(sp)
00000008  DEFFFD04    addi sp, sp, -12
0000000C  DF000215    stw fp, +8(sp)
00000010  DF000204    addi fp, sp, +8
00000014  E7FFFE15    stw ra, -8(fp)
00000018  E13FFF15    stw r4, -4(fp)
0000001C  IL_00000002:
0000001C  21400F15    stw r5, +60(r4)
00000020  IL_00000007:
00000020  E7FFFE17    ldw ra, -8(fp)
00000024  DF000217    ldw fp, +8(sp)
00000028  DEC00304    addi sp, sp, +12
0000002C  DEC00104    addi sp, sp, +4
00000030  F800283A    ret

void Eclr.Pcos.Task.taskBody()
# size: 64
# offset: 000063C4
00000000  DEFFFF04    addi sp, sp, -4
00000004  DFC00015    stw ra, +0(sp)
00000008  DEFFFC04    addi sp, sp, -16
0000000C  DF000315    stw fp, +12(sp)
00000010  DF000304    addi fp, sp, +12
00000014  E7FFFE15    stw ra, -8(fp)
00000018  E43FFD15    stw r16, -12(fp)
0000001C  E13FFF15    stw r4, -4(fp)
00000020  2021883A    mov r16, r4
00000024  IL_00000000:
00000024  80800917    ldw r2, +36(r16)
00000028  1009883A    mov r4, r2
0000002C  IL_00000006:
0000002C  00000000    call 0 R # System.Threading.WaitHandle.WaitOne()  (0000002C:2144:1)
00000030  1080004C    andi r2, r2, 1
00000034  8009883A    mov r4, r16
00000038  IL_0000000D:
00000038  00000000    call 0 R # Eclr.Pcos.Task.Process()  (00000038:7976:1)
0000003C  IL_00000012:
0000003C  003FF906    br -28 # 00000024
# relocation table: 2 enties
00000040  0038,1F28,1
00000044  002C,0860,1

static void Eclr.Pcos.Task.insertTask(Eclr.Pcos.Task)
# size: 192
# offset: 00006420
00000000  DEFFFF04    addi sp, sp, -4
00000004  DFC00015    stw ra, +0(sp)
00000008  DEFFF904    addi sp, sp, -28
0000000C  DF000615    stw fp, +24(sp)
00000010  DF000604    addi fp, sp, +24
00000014  E7FFFD15    stw ra, -12(fp)
00000018  E43FFC15    stw r16, -16(fp)
0000001C  E47FFB15    stw r17, -20(fp)
00000020  E4BFFA15    stw r18, -24(fp)
00000024  2021883A    mov r16, r4
00000028  00800034    orhi r2, r0, 0 R # static TypeInfo Eclr.Pcos.Task (00000028:18440:0)
0000002C  10800014    ori r2, r2, 0 # mov r2, 0
00000030  10C00117    ldw r3, +4(r2)
00000034  IL_00000005:
00000034  E0FFFF15    stw r3, -4(fp)
00000038  IL_00000007:
00000038  E0FFFE15    stw r3, -8(fp)
0000003C  IL_00000008:
0000003C  00000806    br +32 # 00000060
00000040  IL_0000000A:
00000040  80800A0B    ldhu r2, +40(r16)
00000044  E0FFFF17    ldw r3, -4(fp)
00000048  19000A0B    ldhu r4, +40(r3)
0000004C  1823883A    mov r17, r3
00000050  IL_00000016:
00000050  20800616    blt r4, r2, +24 # 0000006C
00000054  IL_00000019:
00000054  E47FFE15    stw r17, -8(fp)
00000058  88800E17    ldw r2, +56(r17)
0000005C  IL_00000020:
0000005C  E0BFFF15    stw r2, -4(fp)
00000060  IL_00000021:
00000060  E0BFFF17    ldw r2, -4(fp)
00000064  1023883A    mov r17, r2
00000068  IL_00000022:
00000068  883FF51E    bne r17, r0, -44 # 00000040
0000006C  IL_00000024:
0000006C  E0BFFF17    ldw r2, -4(fp)
00000070  IL_00000026:
00000070  80800E15    stw r2, +56(r16)
00000074  00800034    orhi r2, r0, 0 R # static TypeInfo Eclr.Pcos.Task (00000074:18440:0)
00000078  10800014    ori r2, r2, 0 # mov r2, 0
0000007C  10C00117    ldw r3, +4(r2)
00000080  E13FFF17    ldw r4, -4(fp)
00000084  2023883A    mov r17, r4
00000088  1025883A    mov r18, r2
0000008C  IL_00000031:
0000008C  88C0021E    bne r17, r3, +8 # 00000098
00000090  IL_00000034:
00000090  94000115    stw r16, +4(r18)
00000094  IL_00000039:
00000094  00000206    br +8 # 000000A0
00000098  IL_0000003A:
00000098  E0BFFE17    ldw r2, -8(fp)
0000009C  14000E15    stw r16, +56(r2)
000000A0  IL_00000041:
000000A0  E7FFFD17    ldw ra, -12(fp)
000000A4  E43FFC17    ldw r16, -16(fp)
000000A8  E47FFB17    ldw r17, -20(fp)
000000AC  E4BFFA17    ldw r18, -24(fp)
000000B0  DF000617    ldw fp, +24(sp)
000000B4  DEC00704    addi sp, sp, +28
000000B8  DEC00104    addi sp, sp, +4
000000BC  F800283A    ret
# relocation table: 2 enties
000000C0  0074,4808,0
000000C4  0028,4808,0

void Eclr.Pcos.Task.Change(System.Object)
# size: 200
# offset: 000064FC
00000000  DEFFFF04    addi sp, sp, -4
00000004  DFC00015    stw ra, +0(sp)
00000008  DEFFFA04    addi sp, sp, -24
0000000C  DF000515    stw fp, +20(sp)
00000010  DF000504    addi fp, sp, +20
00000014  E7FFFD15    stw ra, -12(fp)
00000018  E43FFC15    stw r16, -16(fp)
0000001C  E47FFB15    stw r17, -20(fp)
00000020  E13FFF15    stw r4, -4(fp)
00000024  2021883A    mov r16, r4
00000028  2823883A    mov r17, r5
0000002C  00800034    orhi r2, r0, 0 R # Eclr.Pcos.Task class (0000002C:7876:0)
00000030  10800014    ori r2, r2, 0 # mov r2, 0
00000034  100B883A    mov r5, r2
00000038  8809883A    mov r4, r17
0000003C  IL_00000001:
0000003C  00000000    call 0 R # Eclr.Helper.castclass()  (0000003C:3284:1)
00000040  IL_00000006:
00000040  E0BFFE15    stw r2, -8(fp)
00000044  10C00717    ldw r3, +28(r2)
00000048  IL_0000000E:
00000048  80C00715    stw r3, +28(r16)
0000004C  10C00D17    ldw r3, +52(r2)
00000050  IL_0000001A:
00000050  80C00D15    stw r3, +52(r16)
00000054  10C00F17    ldw r3, +60(r2)
00000058  IL_00000026:
00000058  80C00F15    stw r3, +60(r16)
0000005C  10C00803    ldbu r3, +32(r2)
00000060  IL_00000032:
00000060  80C00805    stb r3, +32(r16)
00000064  80800B17    ldw r2, +44(r16)
00000068  00C00004    addi r3, r0, +0 # movi r3, 0
0000006C  IL_0000003F:
0000006C  10C00F26    beq r2, r3, +60 # 000000AC
00000070  E0BFFE17    ldw r2, -8(fp)
00000074  10C00B17    ldw r3, +44(r2)
00000078  01000004    addi r4, r0, +0 # movi r4, 0
0000007C  1023883A    mov r17, r2
00000080  IL_00000049:
00000080  19000A26    beq r3, r4, +40 # 000000AC
00000084  88800B17    ldw r2, +44(r17)
00000088  10C00717    ldw r3, +28(r2)
0000008C  IL_0000005C:
0000008C  81000B17    ldw r4, +44(r16)
00000090  20C00715    stw r3, +28(r4)
00000094  10C00817    ldw r3, +32(r2)
00000098  IL_00000072:
00000098  20C00815    stw r3, +32(r4)
0000009C  10C00417    ldw r3, +16(r2)
000000A0  IL_00000088:
000000A0  20C00415    stw r3, +16(r4)
000000A4  10C00517    ldw r3, +20(r2)
000000A8  IL_0000009E:
000000A8  20C00515    stw r3, +20(r4)
000000AC  IL_000000A3:
000000AC  E7FFFD17    ldw ra, -12(fp)
000000B0  E43FFC17    ldw r16, -16(fp)
000000B4  E47FFB17    ldw r17, -20(fp)
000000B8  DF000517    ldw fp, +20(sp)
000000BC  DEC00604    addi sp, sp, +24
000000C0  DEC00104    addi sp, sp, +4
000000C4  F800283A    ret
# relocation table: 2 enties
000000C8  003C,0CD4,1
000000CC  002C,1EC4,0

static void ProConOS_eCLR.__DataAreas.ctor()
# size: 128
# offset: 000065E0
00000000  DEFFFF04    addi sp, sp, -4
00000004  DFC00015    stw ra, +0(sp)
00000008  DEFFFD04    addi sp, sp, -12
0000000C  DF000215    stw fp, +8(sp)
00000010  DF000204    addi fp, sp, +8
00000014  E7FFFF15    stw ra, -4(fp)
00000018  E43FFE15    stw r16, -8(fp)
0000001C  IL_00000000:
0000001C  00000000    call 0 R # Eclr.Pcos.M1_1.GetMemPtr()  (0000001C:6768:1)
00000020  IL_00000005:
00000020  00C00034    orhi r3, r0, 0 R # static TypeInfo ProConOS_eCLR.__DataAreas (00000020:18724:0)
00000024  18C00014    ori r3, r3, 0 # mov r3, 0
00000028  18800115    stw r2, +4(r3)
0000002C  IL_0000000A:
0000002C  1821883A    mov r16, r3
00000030  00000000    call 0 R # Eclr.Pcos.M1_2.GetMemPtr()  (00000030:6824:1)
00000034  IL_0000000F:
00000034  80800215    stw r2, +8(r16)
00000038  IL_00000014:
00000038  00000000    call 0 R # Eclr.Pcos.M1_3.GetMemPtr()  (00000038:6880:1)
0000003C  IL_00000019:
0000003C  80800315    stw r2, +12(r16)
00000040  IL_0000001E:
00000040  00000000    call 0 R # ProConOS_eCLR.__TInfo0.GetMemPtr()  (00000040:12336:1)
00000044  IL_00000023:
00000044  80800415    stw r2, +16(r16)
00000048  IL_00000028:
00000048  00000000    call 0 R # ProConOS_eCLR.__TInfoDummy.GetMemPtr()  (00000048:12420:1)
0000004C  IL_0000002D:
0000004C  80800515    stw r2, +20(r16)
00000050  IL_00000032:
00000050  00000000    call 0 R # PhoenixContact.SystemMemory.GetMemPtr()  (00000050:11980:1)
00000054  IL_00000037:
00000054  80800615    stw r2, +24(r16)
00000058  IL_0000003C:
00000058  00000000    call 0 R # Eclr.Pcos.M2_1.GetMemPtr()  (00000058:6712:1)
0000005C  IL_00000041:
0000005C  80800715    stw r2, +28(r16)
00000060  IL_00000046:
00000060  00000000    call 0 R # PhoenixContact.SharedMemory.GetMemPtr()  (00000060:12044:1)
00000064  IL_0000004B:
00000064  80800815    stw r2, +32(r16)
00000068  IL_00000050:
00000068  E7FFFF17    ldw ra, -4(fp)
0000006C  E43FFE17    ldw r16, -8(fp)
00000070  DF000217    ldw fp, +8(sp)
00000074  DEC00304    addi sp, sp, +12
00000078  DEC00104    addi sp, sp, +4
0000007C  F800283A    ret
# relocation table: 9 enties
00000080  0060,2F0C,1
00000084  0058,1A38,1
00000088  0050,2ECC,1
0000008C  0048,3084,1
00000090  0040,3030,1
00000094  0038,1AE0,1
00000098  0030,1AA8,1
0000009C  0020,4924,0
000000A0  001C,1A70,1

static void ProConOS_eCLR.ResGlobalVars.ctor()
# size: 1016
# offset: 00006698
00000000  DEFFFF04    addi sp, sp, -4
00000004  DFC00015    stw ra, +0(sp)
00000008  DEFFFE04    addi sp, sp, -8
0000000C  DF000115    stw fp, +4(sp)
00000010  DF000104    addi fp, sp, +4
00000014  E7FFFF15    stw ra, -4(fp)
00000018  00800034    orhi r2, r0, 0 R # static TypeInfo ProConOS_eCLR.__DataAreas (00000018:18724:0)
0000001C  10800014    ori r2, r2, 0 # mov r2, 0
00000020  10C00217    ldw r3, +8(r2)
00000024  01000404    addi r4, r0, +16 # movi r4, 16
00000028  IL_00000007:
00000028  190B883A    add r5, r3, r4
0000002C  IL_00000008:
0000002C  01800034    orhi r6, r0, 0 R # static TypeInfo ProConOS_eCLR.ResGlobalVars (0000002C:18764:0)
00000030  31800014    ori r6, r6, 0 # mov r6, 0
00000034  31400315    stw r5, +12(r6)
00000038  01400444    addi r5, r0, +17 # movi r5, 17
0000003C  IL_00000014:
0000003C  194F883A    add r7, r3, r5
00000040  IL_00000015:
00000040  31C00415    stw r7, +16(r6)
00000044  11400117    ldw r5, +4(r2)
00000048  01C001C4    addi r7, r0, +7 # movi r7, 7
0000004C  IL_00000020:
0000004C  29D1883A    add r8, r5, r7
00000050  IL_00000021:
00000050  32000515    stw r8, +20(r6)
00000054  01C00184    addi r7, r0, +6 # movi r7, 6
00000058  IL_0000002C:
00000058  29D1883A    add r8, r5, r7
0000005C  IL_0000002D:
0000005C  32000615    stw r8, +24(r6)
00000060  01C00204    addi r7, r0, +8 # movi r7, 8
00000064  IL_00000038:
00000064  29D1883A    add r8, r5, r7
00000068  IL_00000039:
00000068  32000715    stw r8, +28(r6)
0000006C  020004C4    addi r8, r0, +19 # movi r8, 19
00000070  IL_00000045:
00000070  1A13883A    add r9, r3, r8
00000074  IL_00000046:
00000074  32400815    stw r9, +32(r6)
00000078  02000484    addi r8, r0, +18 # movi r8, 18
0000007C  IL_00000052:
0000007C  1A13883A    add r9, r3, r8
00000080  IL_00000053:
00000080  32400915    stw r9, +36(r6)
00000084  02000504    addi r8, r0, +20 # movi r8, 20
00000088  IL_0000005F:
00000088  1A13883A    add r9, r3, r8
0000008C  IL_00000060:
0000008C  32400A15    stw r9, +40(r6)
00000090  IL_0000006A:
00000090  30C00B15    stw r3, +44(r6)
00000094  IL_00000074:
00000094  31400C15    stw r5, +48(r6)
00000098  02000304    addi r8, r0, +12 # movi r8, 12
0000009C  IL_00000080:
0000009C  1A13883A    add r9, r3, r8
000000A0  IL_00000081:
000000A0  32400D15    stw r9, +52(r6)
000000A4  IL_0000008D:
000000A4  1911883A    add r8, r3, r4
000000A8  IL_0000008E:
000000A8  32000E15    stw r8, +56(r6)
000000AC  01000104    addi r4, r0, +4 # movi r4, 4
000000B0  IL_00000099:
000000B0  1911883A    add r8, r3, r4
000000B4  IL_0000009A:
000000B4  32000F15    stw r8, +60(r6)
000000B8  IL_000000A5:
000000B8  19C7883A    add r3, r3, r7
000000BC  IL_000000A6:
000000BC  30C01015    stw r3, +64(r6)
000000C0  IL_000000B1:
000000C0  290B883A    add r5, r5, r4
000000C4  IL_000000B2:
000000C4  31401115    stw r5, +68(r6)
000000C8  10C00417    ldw r3, +16(r2)
000000CC  IL_000000BC:
000000CC  30C01215    stw r3, +72(r6)
000000D0  10C00517    ldw r3, +20(r2)
000000D4  IL_000000C6:
000000D4  30C01315    stw r3, +76(r6)
000000D8  IL_000000D0:
000000D8  30C01415    stw r3, +80(r6)
000000DC  IL_000000DA:
000000DC  30C01515    stw r3, +84(r6)
000000E0  IL_000000E4:
000000E0  30C01615    stw r3, +88(r6)
000000E4  IL_000000EE:
000000E4  30C01715    stw r3, +92(r6)
000000E8  IL_000000F8:
000000E8  30C01815    stw r3, +96(r6)
000000EC  IL_00000102:
000000EC  30C01915    stw r3, +100(r6)
000000F0  10C00617    ldw r3, +24(r2)
000000F4  01001C04    addi r4, r0, +112 # movi r4, 112
000000F8  IL_0000010E:
000000F8  190B883A    add r5, r3, r4
000000FC  IL_0000010F:
000000FC  31401A15    stw r5, +104(r6)
00000100  01000044    addi r4, r0, +1 # movi r4, 1
00000104  IL_0000011A:
00000104  190B883A    add r5, r3, r4
00000108  IL_0000011B:
00000108  31401B15    stw r5, +108(r6)
0000010C  IL_00000125:
0000010C  30C01C15    stw r3, +112(r6)
00000110  01002304    addi r4, r0, +140 # movi r4, 140
00000114  IL_00000134:
00000114  190B883A    add r5, r3, r4
00000118  IL_00000135:
00000118  31401D15    stw r5, +116(r6)
0000011C  01002344    addi r4, r0, +141 # movi r4, 141
00000120  IL_00000144:
00000120  190B883A    add r5, r3, r4
00000124  IL_00000145:
00000124  31401E15    stw r5, +120(r6)
00000128  01002384    addi r4, r0, +142 # movi r4, 142
0000012C  IL_00000154:
0000012C  190B883A    add r5, r3, r4
00000130  IL_00000155:
00000130  31401F15    stw r5, +124(r6)
00000134  010023C4    addi r4, r0, +143 # movi r4, 143
00000138  IL_00000164:
00000138  190B883A    add r5, r3, r4
0000013C  IL_00000165:
0000013C  31402015    stw r5, +128(r6)
00000140  01002404    addi r4, r0, +144 # movi r4, 144
00000144  IL_00000174:
00000144  190B883A    add r5, r3, r4
00000148  IL_00000175:
00000148  31402115    stw r5, +132(r6)
0000014C  01002444    addi r4, r0, +145 # movi r4, 145
00000150  IL_00000184:
00000150  190B883A    add r5, r3, r4
00000154  IL_00000185:
00000154  31402215    stw r5, +136(r6)
00000158  01002484    addi r4, r0, +146 # movi r4, 146
0000015C  IL_00000194:
0000015C  1907883A    add r3, r3, r4
00000160  IL_00000195:
00000160  30C02315    stw r3, +140(r6)
00000164  10C00617    ldw r3, +24(r2)
00000168  010024C4    addi r4, r0, +147 # movi r4, 147
0000016C  IL_000001A4:
0000016C  190B883A    add r5, r3, r4
00000170  IL_000001A5:
00000170  31402415    stw r5, +144(r6)
00000174  01002504    addi r4, r0, +148 # movi r4, 148
00000178  IL_000001B4:
00000178  190B883A    add r5, r3, r4
0000017C  IL_000001B5:
0000017C  31402515    stw r5, +148(r6)
00000180  01002544    addi r4, r0, +149 # movi r4, 149
00000184  IL_000001C4:
00000184  190B883A    add r5, r3, r4
00000188  IL_000001C5:
00000188  31402615    stw r5, +152(r6)
0000018C  01002584    addi r4, r0, +150 # movi r4, 150
00000190  IL_000001D4:
00000190  190B883A    add r5, r3, r4
00000194  IL_000001D5:
00000194  31402715    stw r5, +156(r6)
00000198  010025C4    addi r4, r0, +151 # movi r4, 151
0000019C  IL_000001E4:
0000019C  190B883A    add r5, r3, r4
000001A0  IL_000001E5:
000001A0  31402815    stw r5, +160(r6)
000001A4  01002604    addi r4, r0, +152 # movi r4, 152
000001A8  IL_000001F4:
000001A8  190B883A    add r5, r3, r4
000001AC  IL_000001F5:
000001AC  31402915    stw r5, +164(r6)
000001B0  01002644    addi r4, r0, +153 # movi r4, 153
000001B4  IL_00000204:
000001B4  190B883A    add r5, r3, r4
000001B8  IL_00000205:
000001B8  31402A15    stw r5, +168(r6)
000001BC  01002684    addi r4, r0, +154 # movi r4, 154
000001C0  IL_00000214:
000001C0  190B883A    add r5, r3, r4
000001C4  IL_00000215:
000001C4  31402B15    stw r5, +172(r6)
000001C8  010026C4    addi r4, r0, +155 # movi r4, 155
000001CC  IL_00000224:
000001CC  190B883A    add r5, r3, r4
000001D0  IL_00000225:
000001D0  31402C15    stw r5, +176(r6)
000001D4  010000C4    addi r4, r0, +3 # movi r4, 3
000001D8  IL_00000230:
000001D8  190B883A    add r5, r3, r4
000001DC  IL_00000231:
000001DC  31402D15    stw r5, +180(r6)
000001E0  01000084    addi r4, r0, +2 # movi r4, 2
000001E4  IL_0000023C:
000001E4  190B883A    add r5, r3, r4
000001E8  IL_0000023D:
000001E8  31402E15    stw r5, +184(r6)
000001EC  01000144    addi r4, r0, +5 # movi r4, 5
000001F0  IL_00000248:
000001F0  190B883A    add r5, r3, r4
000001F4  IL_00000249:
000001F4  31402F15    stw r5, +188(r6)
000001F8  01000104    addi r4, r0, +4 # movi r4, 4
000001FC  IL_00000254:
000001FC  190B883A    add r5, r3, r4
00000200  IL_00000255:
00000200  31403015    stw r5, +192(r6)
00000204  01002704    addi r4, r0, +156 # movi r4, 156
00000208  IL_00000264:
00000208  190B883A    add r5, r3, r4
0000020C  IL_00000265:
0000020C  31403115    stw r5, +196(r6)
00000210  01002744    addi r4, r0, +157 # movi r4, 157
00000214  IL_00000274:
00000214  190B883A    add r5, r3, r4
00000218  IL_00000275:
00000218  31403215    stw r5, +200(r6)
0000021C  01002784    addi r4, r0, +158 # movi r4, 158
00000220  IL_00000284:
00000220  190B883A    add r5, r3, r4
00000224  IL_00000285:
00000224  31403315    stw r5, +204(r6)
00000228  010027C4    addi r4, r0, +159 # movi r4, 159
0000022C  IL_00000294:
0000022C  190B883A    add r5, r3, r4
00000230  IL_00000295:
00000230  31403415    stw r5, +208(r6)
00000234  01002804    addi r4, r0, +160 # movi r4, 160
00000238  IL_000002A4:
00000238  190B883A    add r5, r3, r4
0000023C  IL_000002A5:
0000023C  31403515    stw r5, +212(r6)
00000240  01002844    addi r4, r0, +161 # movi r4, 161
00000244  IL_000002B4:
00000244  190B883A    add r5, r3, r4
00000248  IL_000002B5:
00000248  31403615    stw r5, +216(r6)
0000024C  01002884    addi r4, r0, +162 # movi r4, 162
00000250  IL_000002C4:
00000250  190B883A    add r5, r3, r4
00000254  IL_000002C5:
00000254  31403715    stw r5, +220(r6)
00000258  010028C4    addi r4, r0, +163 # movi r4, 163
0000025C  IL_000002D4:
0000025C  190B883A    add r5, r3, r4
00000260  IL_000002D5:
00000260  31403815    stw r5, +224(r6)
00000264  01002904    addi r4, r0, +164 # movi r4, 164
00000268  IL_000002E4:
00000268  190B883A    add r5, r3, r4
0000026C  IL_000002E5:
0000026C  31403915    stw r5, +228(r6)
00000270  01002944    addi r4, r0, +165 # movi r4, 165
00000274  IL_000002F4:
00000274  190B883A    add r5, r3, r4
00000278  IL_000002F5:
00000278  31403A15    stw r5, +232(r6)
0000027C  01000584    addi r4, r0, +22 # movi r4, 22
00000280  IL_00000301:
00000280  190B883A    add r5, r3, r4
00000284  IL_00000302:
00000284  31403B15    stw r5, +236(r6)
00000288  01000604    addi r4, r0, +24 # movi r4, 24
0000028C  IL_0000030E:
0000028C  190B883A    add r5, r3, r4
00000290  IL_0000030F:
00000290  31403C15    stw r5, +240(r6)
00000294  01002D84    addi r4, r0, +182 # movi r4, 182
00000298  IL_0000031E:
00000298  190B883A    add r5, r3, r4
0000029C  IL_0000031F:
0000029C  31403D15    stw r5, +244(r6)
000002A0  01000A04    addi r4, r0, +40 # movi r4, 40
000002A4  IL_0000032B:
000002A4  190B883A    add r5, r3, r4
000002A8  IL_0000032C:
000002A8  31403E15    stw r5, +248(r6)
000002AC  01002DC4    addi r4, r0, +183 # movi r4, 183
000002B0  IL_0000033B:
000002B0  190B883A    add r5, r3, r4
000002B4  IL_0000033C:
000002B4  31403F15    stw r5, +252(r6)
000002B8  01002E04    addi r4, r0, +184 # movi r4, 184
000002BC  IL_0000034B:
000002BC  190B883A    add r5, r3, r4
000002C0  IL_0000034C:
000002C0  31404015    stw r5, +256(r6)
000002C4  01002E44    addi r4, r0, +185 # movi r4, 185
000002C8  IL_0000035B:
000002C8  190B883A    add r5, r3, r4
000002CC  IL_0000035C:
000002CC  31404115    stw r5, +260(r6)
000002D0  01002E84    addi r4, r0, +186 # movi r4, 186
000002D4  IL_0000036B:
000002D4  190B883A    add r5, r3, r4
000002D8  IL_0000036C:
000002D8  31404215    stw r5, +264(r6)
000002DC  01002F44    addi r4, r0, +189 # movi r4, 189
000002E0  IL_0000037B:
000002E0  1907883A    add r3, r3, r4
000002E4  IL_0000037C:
000002E4  30C04315    stw r3, +268(r6)
000002E8  10C00617    ldw r3, +24(r2)
000002EC  01002F84    addi r4, r0, +190 # movi r4, 190
000002F0  IL_0000038B:
000002F0  190B883A    add r5, r3, r4
000002F4  IL_0000038C:
000002F4  31404415    stw r5, +272(r6)
000002F8  11000817    ldw r4, +32(r2)
000002FC  IL_00000396:
000002FC  31004515    stw r4, +276(r6)
00000300  01400044    addi r5, r0, +1 # movi r5, 1
00000304  IL_000003A1:
00000304  214F883A    add r7, r4, r5
00000308  IL_000003A2:
00000308  31C04615    stw r7, +280(r6)
0000030C  01400084    addi r5, r0, +2 # movi r5, 2
00000310  IL_000003AD:
00000310  214F883A    add r7, r4, r5
00000314  IL_000003AE:
00000314  31C04715    stw r7, +284(r6)
00000318  014000C4    addi r5, r0, +3 # movi r5, 3
0000031C  IL_000003B9:
0000031C  2149883A    add r4, r4, r5
00000320  IL_000003BA:
00000320  31004815    stw r4, +288(r6)
00000324  01002984    addi r4, r0, +166 # movi r4, 166
00000328  IL_000003C9:
00000328  190B883A    add r5, r3, r4
0000032C  IL_000003CA:
0000032C  31404915    stw r5, +292(r6)
00000330  010029C4    addi r4, r0, +167 # movi r4, 167
00000334  IL_000003D9:
00000334  190B883A    add r5, r3, r4
00000338  IL_000003DA:
00000338  31404A15    stw r5, +296(r6)
0000033C  01002A04    addi r4, r0, +168 # movi r4, 168
00000340  IL_000003E9:
00000340  190B883A    add r5, r3, r4
00000344  IL_000003EA:
00000344  31404B15    stw r5, +300(r6)
00000348  01002A44    addi r4, r0, +169 # movi r4, 169
0000034C  IL_000003F9:
0000034C  190B883A    add r5, r3, r4
00000350  IL_000003FA:
00000350  31404C15    stw r5, +304(r6)
00000354  01002AC4    addi r4, r0, +171 # movi r4, 171
00000358  IL_00000409:
00000358  190B883A    add r5, r3, r4
0000035C  IL_0000040A:
0000035C  31404D15    stw r5, +308(r6)
00000360  01002B04    addi r4, r0, +172 # movi r4, 172
00000364  IL_00000419:
00000364  190B883A    add r5, r3, r4
00000368  IL_0000041A:
00000368  31404E15    stw r5, +312(r6)
0000036C  01002B44    addi r4, r0, +173 # movi r4, 173
00000370  IL_00000429:
00000370  190B883A    add r5, r3, r4
00000374  IL_0000042A:
00000374  31404F15    stw r5, +316(r6)
00000378  01002C84    addi r4, r0, +178 # movi r4, 178
0000037C  IL_00000439:
0000037C  190B883A    add r5, r3, r4
00000380  IL_0000043A:
00000380  31405015    stw r5, +320(r6)
00000384  01002CC4    addi r4, r0, +179 # movi r4, 179
00000388  IL_00000449:
00000388  190B883A    add r5, r3, r4
0000038C  IL_0000044A:
0000038C  31405115    stw r5, +324(r6)
00000390  01002D44    addi r4, r0, +181 # movi r4, 181
00000394  IL_00000459:
00000394  190B883A    add r5, r3, r4
00000398  IL_0000045A:
00000398  31405215    stw r5, +328(r6)
0000039C  01000F04    addi r4, r0, +60 # movi r4, 60
000003A0  IL_00000466:
000003A0  190B883A    add r5, r3, r4
000003A4  IL_00000467:
000003A4  31405315    stw r5, +332(r6)
000003A8  01000F84    addi r4, r0, +62 # movi r4, 62
000003AC  IL_00000473:
000003AC  190B883A    add r5, r3, r4
000003B0  IL_00000474:
000003B0  31405415    stw r5, +336(r6)
000003B4  01001004    addi r4, r0, +64 # movi r4, 64
000003B8  IL_00000480:
000003B8  190B883A    add r5, r3, r4
000003BC  IL_00000481:
000003BC  31405515    stw r5, +340(r6)
000003C0  01001104    addi r4, r0, +68 # movi r4, 68
000003C4  IL_0000048D:
000003C4  190B883A    add r5, r3, r4
000003C8  IL_0000048E:
000003C8  31405615    stw r5, +344(r6)
000003CC  01001184    addi r4, r0, +70 # movi r4, 70
000003D0  IL_0000049A:
000003D0  190B883A    add r5, r3, r4
000003D4  IL_0000049B:
000003D4  31405715    stw r5, +348(r6)
000003D8  01001204    addi r4, r0, +72 # movi r4, 72
000003DC  IL_000004A7:
000003DC  1907883A    add r3, r3, r4
000003E0  IL_000004A8:
000003E0  30C05915    stw r3, +356(r6)
000003E4  IL_000004AD:
000003E4  E7FFFF17    ldw ra, -4(fp)
000003E8  DF000117    ldw fp, +4(sp)
000003EC  DEC00204    addi sp, sp, +8
000003F0  DEC00104    addi sp, sp, +4
000003F4  F800283A    ret
# relocation table: 2 enties
000003F8  002C,494C,0
000003FC  0018,4924,0

static void ProConOS_eCLR.ResGlobalVars.__Init()
# size: 44
# offset: 00006AAC
00000000  DEFFFF04    addi sp, sp, -4
00000004  DFC00015    stw ra, +0(sp)
00000008  DEFFFE04    addi sp, sp, -8
0000000C  DF000115    stw fp, +4(sp)
00000010  DF000104    addi fp, sp, +4
00000014  E7FFFF15    stw ra, -4(fp)
00000018  IL_00000000:
00000018  E7FFFF17    ldw ra, -4(fp)
0000001C  DF000117    ldw fp, +4(sp)
00000020  DEC00204    addi sp, sp, +8
00000024  DEC00104    addi sp, sp, +4
00000028  F800283A    ret

static void ProConOS_eCLR.ResGlobalVars.__RInit()
# size: 44
# offset: 00006AEC
00000000  DEFFFF04    addi sp, sp, -4
00000004  DFC00015    stw ra, +0(sp)
00000008  DEFFFE04    addi sp, sp, -8
0000000C  DF000115    stw fp, +4(sp)
00000010  DF000104    addi fp, sp, +4
00000014  E7FFFF15    stw ra, -4(fp)
00000018  IL_00000000:
00000018  E7FFFF17    ldw ra, -4(fp)
0000001C  DF000117    ldw fp, +4(sp)
00000020  DEC00204    addi sp, sp, +8
00000024  DEC00104    addi sp, sp, +4
00000028  F800283A    ret

static void ProConOS_eCLR.ResGlobalVars.rctor()
# size: 44
# offset: 00006B2C
00000000  DEFFFF04    addi sp, sp, -4
00000004  DFC00015    stw ra, +0(sp)
00000008  DEFFFE04    addi sp, sp, -8
0000000C  DF000115    stw fp, +4(sp)
00000010  DF000104    addi fp, sp, +4
00000014  E7FFFF15    stw ra, -4(fp)
00000018  IL_00000000:
00000018  E7FFFF17    ldw ra, -4(fp)
0000001C  DF000117    ldw fp, +4(sp)
00000020  DEC00204    addi sp, sp, +8
00000024  DEC00104    addi sp, sp, +4
00000028  F800283A    ret

void ProConOS_eCLR.__STD_TSK.__Init()
# size: 80
# offset: 00006B6C
00000000  DEFFFF04    addi sp, sp, -4
00000004  DFC00015    stw ra, +0(sp)
00000008  DEFFFC04    addi sp, sp, -16
0000000C  DF000315    stw fp, +12(sp)
00000010  DF000304    addi fp, sp, +12
00000014  E7FFFE15    stw ra, -8(fp)
00000018  E43FFD15    stw r16, -12(fp)
0000001C  E13FFF15    stw r4, -4(fp)
00000020  00800034    orhi r2, r0, 0 R # static TypeInfo ProConOS_eCLR.__STD_TSK (00000020:19140:0)
00000024  10800014    ori r2, r2, 0 # mov r2, 0
00000028  10C00217    ldw r3, +8(r2)
0000002C  1809883A    mov r4, r3
00000030  IL_00000005:
00000030  1021883A    mov r16, r2
00000034  00000000    call 0 R # ProConOS_eCLR.Main@Main.__Init()  (00000034:16536:1)
00000038  IL_0000000A:
00000038  E7FFFE17    ldw ra, -8(fp)
0000003C  E43FFD17    ldw r16, -12(fp)
00000040  DF000317    ldw fp, +12(sp)
00000044  DEC00404    addi sp, sp, +16
00000048  DEC00104    addi sp, sp, +4
0000004C  F800283A    ret
# relocation table: 2 enties
00000050  0034,4098,1
00000054  0020,4AC4,0

void ProConOS_eCLR.__STD_TSK.__RInit()
# size: 80
# offset: 00006BD8
00000000  DEFFFF04    addi sp, sp, -4
00000004  DFC00015    stw ra, +0(sp)
00000008  DEFFFC04    addi sp, sp, -16
0000000C  DF000315    stw fp, +12(sp)
00000010  DF000304    addi fp, sp, +12
00000014  E7FFFE15    stw ra, -8(fp)
00000018  E43FFD15    stw r16, -12(fp)
0000001C  E13FFF15    stw r4, -4(fp)
00000020  00800034    orhi r2, r0, 0 R # static TypeInfo ProConOS_eCLR.__STD_TSK (00000020:19140:0)
00000024  10800014    ori r2, r2, 0 # mov r2, 0
00000028  10C00217    ldw r3, +8(r2)
0000002C  1809883A    mov r4, r3
00000030  IL_00000005:
00000030  1021883A    mov r16, r2
00000034  00000000    call 0 R # ProConOS_eCLR.Main@Main.__RInit()  (00000034:16552:1)
00000038  IL_0000000A:
00000038  E7FFFE17    ldw ra, -8(fp)
0000003C  E43FFD17    ldw r16, -12(fp)
00000040  DF000317    ldw fp, +12(sp)
00000044  DEC00404    addi sp, sp, +16
00000048  DEC00104    addi sp, sp, +4
0000004C  F800283A    ret
# relocation table: 2 enties
00000050  0034,40A8,1
00000054  0020,4AC4,0

void ProConOS_eCLR.__STD_TSK..ctor()
# size: 96
# offset: 00006C44
00000000  DEFFFF04    addi sp, sp, -4
00000004  DFC00015    stw ra, +0(sp)
00000008  DEFFFC04    addi sp, sp, -16
0000000C  DF000315    stw fp, +12(sp)
00000010  DF000304    addi fp, sp, +12
00000014  E7FFFE15    stw ra, -8(fp)
00000018  E43FFD15    stw r16, -12(fp)
0000001C  E13FFF15    stw r4, -4(fp)
00000020  00800034    orhi r2, r0, 0 R # ProConOS_eCLR.Main@Main class (00000020:16492:0)
00000024  10800014    ori r2, r2, 0 # mov r2, 0
00000028  1009883A    mov r4, r2
0000002C  IL_00000000:
0000002C  00000000    call 0 R # Eclr.GCHeap.newobj()  (0000002C:3920:1)
00000030  1009883A    mov r4, r2
00000034  1021883A    mov r16, r2
00000038  00000000    call 0 R # ProConOS_eCLR.Main@Main..ctor()  (00000038:16568:1)
0000003C  IL_00000005:
0000003C  00800034    orhi r2, r0, 0 R # static TypeInfo ProConOS_eCLR.__STD_TSK (0000003C:19140:0)
00000040  10800014    ori r2, r2, 0 # mov r2, 0
00000044  14000215    stw r16, +8(r2)
00000048  IL_0000000A:
00000048  E7FFFE17    ldw ra, -8(fp)
0000004C  E43FFD17    ldw r16, -12(fp)
00000050  DF000317    ldw fp, +12(sp)
00000054  DEC00404    addi sp, sp, +16
00000058  DEC00104    addi sp, sp, +4
0000005C  F800283A    ret
# relocation table: 4 enties
00000060  003C,4AC4,0
00000064  0038,40B8,1
00000068  002C,0F50,1
0000006C  0020,406C,0

void ProConOS_eCLR.__STD_TSK.rctor()
# size: 80
# offset: 00006CC8
00000000  DEFFFF04    addi sp, sp, -4
00000004  DFC00015    stw ra, +0(sp)
00000008  DEFFFC04    addi sp, sp, -16
0000000C  DF000315    stw fp, +12(sp)
00000010  DF000304    addi fp, sp, +12
00000014  E7FFFE15    stw ra, -8(fp)
00000018  E43FFD15    stw r16, -12(fp)
0000001C  E13FFF15    stw r4, -4(fp)
00000020  00800034    orhi r2, r0, 0 R # static TypeInfo ProConOS_eCLR.__STD_TSK (00000020:19140:0)
00000024  10800014    ori r2, r2, 0 # mov r2, 0
00000028  10C00217    ldw r3, +8(r2)
0000002C  1809883A    mov r4, r3
00000030  IL_00000005:
00000030  1021883A    mov r16, r2
00000034  00000000    call 0 R # ProConOS_eCLR.Main@Main.rctor()  (00000034:16584:1)
00000038  IL_0000000A:
00000038  E7FFFE17    ldw ra, -8(fp)
0000003C  E43FFD17    ldw r16, -12(fp)
00000040  DF000317    ldw fp, +12(sp)
00000044  DEC00404    addi sp, sp, +16
00000048  DEC00104    addi sp, sp, +4
0000004C  F800283A    ret
# relocation table: 2 enties
00000050  0034,40C8,1
00000054  0020,4AC4,0

void Eclr.DcgNonGeneric..ctor()
# size: 52
# offset: 00006D34
00000000  DEFFFF04    addi sp, sp, -4
00000004  DFC00015    stw ra, +0(sp)
00000008  DEFFFD04    addi sp, sp, -12
0000000C  DF000215    stw fp, +8(sp)
00000010  DF000204    addi fp, sp, +8
00000014  E7FFFE15    stw ra, -8(fp)
00000018  E13FFF15    stw r4, -4(fp)
0000001C  IL_00000001:
0000001C  00000000    call 0 R # System.Object..ctor()  (0000001C:284:1)
00000020  IL_00000006:
00000020  E7FFFE17    ldw ra, -8(fp)
00000024  DF000217    ldw fp, +8(sp)
00000028  DEC00304    addi sp, sp, +12
0000002C  DEC00104    addi sp, sp, +4
00000030  F800283A    ret
# relocation table: 1 enties
00000034  001C,011C,1

void ProConOS_eCLR.Main@Main.__Init()
# size: 48
# offset: 00006D80
00000000  DEFFFF04    addi sp, sp, -4
00000004  DFC00015    stw ra, +0(sp)
00000008  DEFFFD04    addi sp, sp, -12
0000000C  DF000215    stw fp, +8(sp)
00000010  DF000204    addi fp, sp, +8
00000014  E7FFFE15    stw ra, -8(fp)
00000018  E13FFF15    stw r4, -4(fp)
0000001C  IL_00000000:
0000001C  E7FFFE17    ldw ra, -8(fp)
00000020  DF000217    ldw fp, +8(sp)
00000024  DEC00304    addi sp, sp, +12
00000028  DEC00104    addi sp, sp, +4
0000002C  F800283A    ret

void ProConOS_eCLR.Main@Main.__RInit()
# size: 48
# offset: 00006DC4
00000000  DEFFFF04    addi sp, sp, -4
00000004  DFC00015    stw ra, +0(sp)
00000008  DEFFFD04    addi sp, sp, -12
0000000C  DF000215    stw fp, +8(sp)
00000010  DF000204    addi fp, sp, +8
00000014  E7FFFE15    stw ra, -8(fp)
00000018  E13FFF15    stw r4, -4(fp)
0000001C  IL_00000000:
0000001C  E7FFFE17    ldw ra, -8(fp)
00000020  DF000217    ldw fp, +8(sp)
00000024  DEC00304    addi sp, sp, +12
00000028  DEC00104    addi sp, sp, +4
0000002C  F800283A    ret

void ProConOS_eCLR.Main@Main..ctor()
# size: 48
# offset: 00006E08
00000000  DEFFFF04    addi sp, sp, -4
00000004  DFC00015    stw ra, +0(sp)
00000008  DEFFFD04    addi sp, sp, -12
0000000C  DF000215    stw fp, +8(sp)
00000010  DF000204    addi fp, sp, +8
00000014  E7FFFE15    stw ra, -8(fp)
00000018  E13FFF15    stw r4, -4(fp)
0000001C  IL_00000000:
0000001C  E7FFFE17    ldw ra, -8(fp)
00000020  DF000217    ldw fp, +8(sp)
00000024  DEC00304    addi sp, sp, +12
00000028  DEC00104    addi sp, sp, +4
0000002C  F800283A    ret

void ProConOS_eCLR.Main@Main.rctor()
# size: 48
# offset: 00006E4C
00000000  DEFFFF04    addi sp, sp, -4
00000004  DFC00015    stw ra, +0(sp)
00000008  DEFFFD04    addi sp, sp, -12
0000000C  DF000215    stw fp, +8(sp)
00000010  DF000204    addi fp, sp, +8
00000014  E7FFFE15    stw ra, -8(fp)
00000018  E13FFF15    stw r4, -4(fp)
0000001C  IL_00000000:
0000001C  E7FFFE17    ldw ra, -8(fp)
00000020  DF000217    ldw fp, +8(sp)
00000024  DEC00304    addi sp, sp, +12
00000028  DEC00104    addi sp, sp, +4
0000002C  F800283A    ret

static void ProConOS_eCLR.__StringConstants.ctor()
# size: 208
# offset: 00006E90
00000000  DEFFFF04    addi sp, sp, -4
00000004  DFC00015    stw ra, +0(sp)
00000008  DEFFFC04    addi sp, sp, -16
0000000C  DF000315    stw fp, +12(sp)
00000010  DF000304    addi fp, sp, +12
00000014  E7FFFF15    stw ra, -4(fp)
00000018  E43FFE15    stw r16, -8(fp)
0000001C  E47FFD15    stw r17, -12(fp)
00000020  00800034    orhi r2, r0, 0 R # static TypeInfo ProConOS_eCLR.__StringConstants (00000020:19424:0)
00000024  10800014    ori r2, r2, 0 # mov r2, 0
00000028  10C00104    addi r3, r2, +4
0000002C  IL_00000005:
0000002C  01000034    orhi r4, r0, 0 R # static TypeInfo ProConOS_eCLR.__Misc (0000002C:19128:0)
00000030  21000014    ori r4, r4, 0 # mov r4, 0
00000034  20C00115    stw r3, +4(r4)
00000038  01400204    addi r5, r0, +8 # movi r5, 8
0000003C  IL_00000010:
0000003C  1940000D    sth r5, +0(r3)
00000040  180B883A    mov r5, r3
00000044  00C00034    orhi r3, r0, 0 R # String (8,8) "template" (00000044:17784:0)
00000048  18C00014    ori r3, r3, 0 # mov r3, 0
0000004C  2021883A    mov r16, r4
00000050  1809883A    mov r4, r3
00000054  IL_0000001F:
00000054  1023883A    mov r17, r2
00000058  00000000    call 0 R # System.Iec61131Lib.IecStringEx.Copy()  (00000058:6288:1)
0000005C  008001C4    addi r2, r0, +7 # movi r2, 7
00000060  IL_0000002D:
00000060  80C00117    ldw r3, +4(r16)
00000064  01000384    addi r4, r0, +14 # movi r4, 14
00000068  190B883A    add r5, r3, r4
0000006C  2880000D    sth r2, +0(r5)
00000070  IL_0000003E:
00000070  1907883A    add r3, r3, r4
00000074  180B883A    mov r5, r3
00000078  00800034    orhi r2, r0, 0 R # String (7,7) "STD_CNF" (00000078:17808:0)
0000007C  10800014    ori r2, r2, 0 # mov r2, 0
00000080  1009883A    mov r4, r2
00000084  IL_0000003F:
00000084  00000000    call 0 R # System.Iec61131Lib.IecStringEx.Copy()  (00000084:6288:1)
00000088  008001C4    addi r2, r0, +7 # movi r2, 7
0000008C  IL_0000004D:
0000008C  80C00117    ldw r3, +4(r16)
00000090  01000684    addi r4, r0, +26 # movi r4, 26
00000094  190B883A    add r5, r3, r4
00000098  2880000D    sth r2, +0(r5)
0000009C  IL_0000005E:
0000009C  1907883A    add r3, r3, r4
000000A0  180B883A    mov r5, r3
000000A4  00800034    orhi r2, r0, 0 R # String (7,7) "STD_RES" (000000A4:17832:0)
000000A8  10800014    ori r2, r2, 0 # mov r2, 0
000000AC  1009883A    mov r4, r2
000000B0  IL_0000005F:
000000B0  00000000    call 0 R # System.Iec61131Lib.IecStringEx.Copy()  (000000B0:6288:1)
000000B4  IL_00000064:
000000B4  E7FFFF17    ldw ra, -4(fp)
000000B8  E43FFE17    ldw r16, -8(fp)
000000BC  E47FFD17    ldw r17, -12(fp)
000000C0  DF000317    ldw fp, +12(sp)
000000C4  DEC00404    addi sp, sp, +16
000000C8  DEC00104    addi sp, sp, +4
000000CC  F800283A    ret
# relocation table: 8 enties
000000D0  00B0,1890,1
000000D4  00A4,45A8,0
000000D8  0084,1890,1
000000DC  0078,4590,0
000000E0  0058,1890,1
000000E4  0044,4578,0
000000E8  002C,4AB8,0
000000EC  0020,4BE0,0

static void ProConOS_eCLR.__STD_RES.__Process_STD_TSK()
# size: 216
# offset: 00006F94
00000000  DEFFFF04    addi sp, sp, -4
00000004  DFC00015    stw ra, +0(sp)
00000008  DEFFFB04    addi sp, sp, -20
0000000C  DF000415    stw fp, +16(sp)
00000010  DF000404    addi fp, sp, +16
00000014  E7FFFE15    stw ra, -8(fp)
00000018  E43FFD15    stw r16, -12(fp)
0000001C  E47FFC15    stw r17, -16(fp)
00000020  00800034    orhi r2, r0, 0 R # static TypeInfo ProConOS_eCLR.__STD_RES (00000020:19472:0)
00000024  10800014    ori r2, r2, 0 # mov r2, 0
00000028  10C00117    ldw r3, +4(r2)
0000002C  1809883A    mov r4, r3
00000030  IL_00000005:
00000030  1021883A    mov r16, r2
00000034  00000000    call 0 R # Eclr.Pcos.eclrIoDrv_Ib.BeginReadAll()  (00000034:11308:1)
00000038  80800117    ldw r2, +4(r16)
0000003C  1009883A    mov r4, r2
00000040  00800004    addi r2, r0, +0 # movi r2, 0
00000044  100B883A    mov r5, r2
00000048  IL_00000014:
00000048  00000000    call 0 R # Eclr.Pcos.eclrIoDrv_Ib.BeginReadGroup()  (00000048:11332:1)
0000004C  80800117    ldw r2, +4(r16)
00000050  1009883A    mov r4, r2
00000054  00800004    addi r2, r0, +0 # movi r2, 0
00000058  100B883A    mov r5, r2
0000005C  IL_00000023:
0000005C  00000000    call 0 R # Eclr.Pcos.eclrIoDrv_Ib.ReadUInt16()  (0000005C:11456:1)
00000060  10BFFFCC    andi r2, r2, 65535
00000064  IL_00000028:
00000064  00C00034    orhi r3, r0, 0 R # static TypeInfo ProConOS_eCLR.ResGlobalVars (00000064:18764:0)
00000068  18C00014    ori r3, r3, 0 # mov r3, 0
0000006C  1880018D    sth r2, +6(r3)
00000070  80800117    ldw r2, +4(r16)
00000074  1009883A    mov r4, r2
00000078  00800084    addi r2, r0, +2 # movi r2, 2
0000007C  100B883A    mov r5, r2
00000080  IL_00000037:
00000080  1823883A    mov r17, r3
00000084  00000000    call 0 R # Eclr.Pcos.eclrIoDrv_Ib.ReadUInt16()  (00000084:11456:1)
00000088  10BFFFCC    andi r2, r2, 65535
0000008C  IL_0000003C:
0000008C  8880020D    sth r2, +8(r17)
00000090  80800117    ldw r2, +4(r16)
00000094  1009883A    mov r4, r2
00000098  IL_00000046:
00000098  00000000    call 0 R # Eclr.Pcos.eclrIoDrv_Ib.EndReadGroup()  (00000098:11536:1)
0000009C  80800117    ldw r2, +4(r16)
000000A0  1009883A    mov r4, r2
000000A4  IL_00000050:
000000A4  00000000    call 0 R # Eclr.Pcos.eclrIoDrv_Ib.EndReadAll()  (000000A4:11560:1)
000000A8  IL_00000055:
000000A8  00000000    call 0 R # Eclr.Pcos.Resource.PreCycle()  (000000A8:7356:1)
000000AC  80800217    ldw r2, +8(r16)
000000B0  1009883A    mov r4, r2
000000B4  IL_0000005F:
000000B4  00000000    call 0 R # ProConOS_eCLR.__STD_TSK.__Process()  (000000B4:16952:1)
000000B8  IL_00000064:
000000B8  00000000    call 0 R # Eclr.Pcos.Resource.PostCycle()  (000000B8:7376:1)
000000BC  IL_00000069:
000000BC  E7FFFE17    ldw ra, -8(fp)
000000C0  E43FFD17    ldw r16, -12(fp)
000000C4  E47FFC17    ldw r17, -16(fp)
000000C8  DF000417    ldw fp, +16(sp)
000000CC  DEC00504    addi sp, sp, +20
000000D0  DEC00104    addi sp, sp, +4
000000D4  F800283A    ret
# relocation table: 11 enties
000000D8  00B8,1CD0,1
000000DC  00B4,4238,1
000000E0  00A8,1CBC,1
000000E4  00A4,2D28,1
000000E8  0098,2D10,1
000000EC  0084,2CC0,1
000000F0  0064,494C,0
000000F4  005C,2CC0,1
000000F8  0048,2C44,1
000000FC  0034,2C2C,1
00000100  0020,4C10,0

void System.Threading.Thread..ctor(System.Threading.ThreadStart)
# size: 120
# offset: 000070AC
00000000  DEFFFF04    addi sp, sp, -4
00000004  DFC00015    stw ra, +0(sp)
00000008  DEFFFB04    addi sp, sp, -20
0000000C  DF000415    stw fp, +16(sp)
00000010  DF000404    addi fp, sp, +16
00000014  E7FFFE15    stw ra, -8(fp)
00000018  E43FFD15    stw r16, -12(fp)
0000001C  E47FFC15    stw r17, -16(fp)
00000020  E13FFF15    stw r4, -4(fp)
00000024  2021883A    mov r16, r4
00000028  2823883A    mov r17, r5
0000002C  8009883A    mov r4, r16
00000030  IL_00000001:
00000030  00000000    call 0 R # System.Object..ctor()  (00000030:284:1)
00000034  880B883A    mov r5, r17
00000038  8009883A    mov r4, r16
0000003C  IL_00000008:
0000003C  00000000    call 0 R # System.Threading.Thread.create()  (0000003C:2044:1)
00000040  1080004C    andi r2, r2, 1
00000044  IL_0000000D:
00000044  10000526    beq r2, r0, +20 # 0000005C
00000048  00800034    orhi r2, r0, 0 R # static TypeInfo System.Threading.Thread (00000048:18320:0)
0000004C  10800014    ori r2, r2, 0 # mov r2, 0
00000050  10C00117    ldw r3, +4(r2)
00000054  IL_00000015:
00000054  80C00115    stw r3, +4(r16)
00000058  IL_0000001B:
00000058  14000115    stw r16, +4(r2)
0000005C  IL_00000020:
0000005C  E7FFFE17    ldw ra, -8(fp)
00000060  E43FFD17    ldw r16, -12(fp)
00000064  E47FFC17    ldw r17, -16(fp)
00000068  DF000417    ldw fp, +16(sp)
0000006C  DEC00504    addi sp, sp, +20
00000070  DEC00104    addi sp, sp, +4
00000074  F800283A    ret
# relocation table: 3 enties
00000078  0048,4790,0
0000007C  003C,07FC,1
00000080  0030,011C,1

void System.Threading.AutoResetEvent..ctor(System.Boolean)
# size: 60
# offset: 00007144
00000000  DEFFFF04    addi sp, sp, -4
00000004  DFC00015    stw ra, +0(sp)
00000008  DEFFFD04    addi sp, sp, -12
0000000C  DF000215    stw fp, +8(sp)
00000010  DF000204    addi fp, sp, +8
00000014  E7FFFE15    stw ra, -8(fp)
00000018  E13FFF15    stw r4, -4(fp)
0000001C  00800004    addi r2, r0, +0 # movi r2, 0
00000020  100D883A    mov r6, r2
00000024  IL_00000003:
00000024  00000000    call 0 R # System.Threading.EventWaitHandle..ctor()  (00000024:2260:1)
00000028  IL_00000008:
00000028  E7FFFE17    ldw ra, -8(fp)
0000002C  DF000217    ldw fp, +8(sp)
00000030  DEC00304    addi sp, sp, +12
00000034  DEC00104    addi sp, sp, +4
00000038  F800283A    ret
# relocation table: 1 enties
0000003C  0024,08D4,1

System.Byte* System.Iec61131Lib.IecStringEx.GetIecString()
# size: 84
# offset: 00007198
00000000  DEFFFF04    addi sp, sp, -4
00000004  DFC00015    stw ra, +0(sp)
00000008  DEFFFB04    addi sp, sp, -20
0000000C  DF000415    stw fp, +16(sp)
00000010  DF000404    addi fp, sp, +16
00000014  E7FFFC15    stw ra, -16(fp)
00000018  E13FFF15    stw r4, -4(fp)
0000001C  00800004    addi r2, r0, +0 # movi r2, 0
00000020  IL_00000002:
00000020  E0BFFE15    stw r2, -8(fp)
00000024  IL_00000004:
00000024  E13FFD15    stw r4, -12(fp)
00000028  00C00104    addi r3, r0, +4 # movi r3, 4
0000002C  IL_0000000D:
0000002C  20CB883A    add r5, r4, r3
00000030  IL_0000000E:
00000030  E17FFE15    stw r5, -8(fp)
00000034  IL_00000011:
00000034  E0BFFD15    stw r2, -12(fp)
00000038  IL_00000013:
00000038  1007883A    mov r3, r2
0000003C  2805883A    mov r2, r5
00000040  E7FFFC17    ldw ra, -16(fp)
00000044  DF000417    ldw fp, +16(sp)
00000048  DEC00504    addi sp, sp, +20
0000004C  DEC00104    addi sp, sp, +4
00000050  F800283A    ret

static void System.Iec61131Lib.IecStringEx.Copy(System.String,System.Iec61131Lib.IecStringEx*)
# size: 272
# offset: 00007200
00000000  DEFFFF04    addi sp, sp, -4
00000004  DFC00015    stw ra, +0(sp)
00000008  DEFFF704    addi sp, sp, -36
0000000C  DF000815    stw fp, +32(sp)
00000010  DF000804    addi fp, sp, +32
00000014  E7FFFC15    stw ra, -16(fp)
00000018  E43FFB15    stw r16, -20(fp)
0000001C  E47FFA15    stw r17, -24(fp)
00000020  E4BFF915    stw r18, -28(fp)
00000024  E4FFF815    stw r19, -32(fp)
00000028  2021883A    mov r16, r4
0000002C  2823883A    mov r17, r5
00000030  8809883A    mov r4, r17
00000034  IL_00000001:
00000034  00000000    call 0 R # System.Iec61131Lib.IecStringEx.GetIecString()  (00000034:6244:1)
00000038  IL_00000006:
00000038  E0BFFF15    stw r2, -4(fp)
0000003C  IL_00000008:
0000003C  80002726    beq r16, r0, +156 # 000000DC
00000040  8880000F    ldh r2, +0(r17)
00000044  IL_00000010:
00000044  E0BFFE0D    sth r2, -8(fp)
00000048  8009883A    mov r4, r16
0000004C  IL_00000013:
0000004C  1025883A    mov r18, r2
00000050  00000000    call 0 R # System.String.get_Length()  (00000050:1112:1)
00000054  1004943A    slli r2, r2, 16
00000058  1005D43A    srai r2, r2, 16
0000005C  E0FFFE0F    ldh r3, -8(fp)
00000060  1825883A    mov r18, r3
00000064  IL_00000019:
00000064  1480030E    bge r2, r18, +12 # 00000074
00000068  8009883A    mov r4, r16
0000006C  IL_0000001C:
0000006C  00000000    call 0 R # System.String.get_Length()  (0000006C:1112:1)
00000070  IL_00000022:
00000070  E0BFFE0D    sth r2, -8(fp)
00000074  IL_00000023:
00000074  00800004    addi r2, r0, +0 # movi r2, 0
00000078  IL_00000024:
00000078  E0BFFD15    stw r2, -12(fp)
0000007C  IL_00000025:
0000007C  00000C06    br +48 # 000000B0
00000080  IL_00000027:
00000080  E0BFFD17    ldw r2, -12(fp)
00000084  100B883A    mov r5, r2
00000088  8009883A    mov r4, r16
0000008C  IL_0000002C:
0000008C  1025883A    mov r18, r2
00000090  00000000    call 0 R # System.String.get_Chars()  (00000090:1088:1)
00000094  10BFFFCC    andi r2, r2, 65535
00000098  IL_00000032:
00000098  E0FFFF17    ldw r3, -4(fp)
0000009C  1C89883A    add r4, r3, r18
000000A0  20800005    stb r2, +0(r4)
000000A4  00800044    addi r2, r0, +1 # movi r2, 1
000000A8  IL_00000035:
000000A8  9089883A    add r4, r18, r2
000000AC  IL_00000036:
000000AC  E13FFD15    stw r4, -12(fp)
000000B0  IL_00000037:
000000B0  E0BFFE0F    ldh r2, -8(fp)
000000B4  1025883A    mov r18, r2
000000B8  E0BFFD17    ldw r2, -12(fp)
000000BC  1027883A    mov r19, r2
000000C0  IL_00000039:
000000C0  9CBFEF16    blt r19, r18, -68 # 00000080
000000C4  00800004    addi r2, r0, +0 # movi r2, 0
000000C8  IL_0000003F:
000000C8  E0FFFF17    ldw r3, -4(fp)
000000CC  1C89883A    add r4, r3, r18
000000D0  20800005    stb r2, +0(r4)
000000D4  IL_00000042:
000000D4  8C80008D    sth r18, +2(r17)
000000D8  IL_00000047:
000000D8  00000406    br +16 # 000000EC
000000DC  IL_00000048:
000000DC  00800004    addi r2, r0, +0 # movi r2, 0
000000E0  IL_0000004A:
000000E0  E0FFFF17    ldw r3, -4(fp)
000000E4  18800005    stb r2, +0(r3)
000000E8  IL_0000004D:
000000E8  8880008D    sth r2, +2(r17)
000000EC  IL_00000052:
000000EC  E7FFFC17    ldw ra, -16(fp)
000000F0  E43FFB17    ldw r16, -20(fp)
000000F4  E47FFA17    ldw r17, -24(fp)
000000F8  E4BFF917    ldw r18, -28(fp)
000000FC  E4FFF817    ldw r19, -32(fp)
00000100  DF000817    ldw fp, +32(sp)
00000104  DEC00904    addi sp, sp, +36
00000108  DEC00104    addi sp, sp, +4
0000010C  F800283A    ret
# relocation table: 4 enties
00000110  0090,0440,1
00000114  006C,0458,1
00000118  0050,0458,1
0000011C  0034,1864,1

void System.Iec61131Lib.IecStringEx.Init(System.String)
# size: 276
# offset: 00007334
00000000  DEFFFF04    addi sp, sp, -4
00000004  DFC00015    stw ra, +0(sp)
00000008  DEFFF604    addi sp, sp, -40
0000000C  DF000915    stw fp, +36(sp)
00000010  DF000904    addi fp, sp, +36
00000014  E7FFFB15    stw ra, -20(fp)
00000018  E43FFA15    stw r16, -24(fp)
0000001C  E47FF915    stw r17, -28(fp)
00000020  E4BFF815    stw r18, -32(fp)
00000024  E4FFF715    stw r19, -36(fp)
00000028  E13FFF15    stw r4, -4(fp)
0000002C  2021883A    mov r16, r4
00000030  2823883A    mov r17, r5
00000034  8009883A    mov r4, r16
00000038  IL_00000001:
00000038  00000000    call 0 R # System.Iec61131Lib.IecStringEx.GetIecString()  (00000038:6244:1)
0000003C  IL_00000006:
0000003C  E0BFFE15    stw r2, -8(fp)
00000040  IL_00000008:
00000040  88002726    beq r17, r0, +156 # 000000E0
00000044  8080000F    ldh r2, +0(r16)
00000048  IL_00000010:
00000048  E0BFFD0D    sth r2, -12(fp)
0000004C  8809883A    mov r4, r17
00000050  IL_00000013:
00000050  1025883A    mov r18, r2
00000054  00000000    call 0 R # System.String.get_Length()  (00000054:1112:1)
00000058  1004943A    slli r2, r2, 16
0000005C  1005D43A    srai r2, r2, 16
00000060  E0FFFD0F    ldh r3, -12(fp)
00000064  1825883A    mov r18, r3
00000068  IL_00000019:
00000068  1480030E    bge r2, r18, +12 # 00000078
0000006C  8809883A    mov r4, r17
00000070  IL_0000001C:
00000070  00000000    call 0 R # System.String.get_Length()  (00000070:1112:1)
00000074  IL_00000022:
00000074  E0BFFD0D    sth r2, -12(fp)
00000078  IL_00000023:
00000078  00800004    addi r2, r0, +0 # movi r2, 0
0000007C  IL_00000024:
0000007C  E0BFFC15    stw r2, -16(fp)
00000080  IL_00000025:
00000080  00000C06    br +48 # 000000B4
00000084  IL_00000027:
00000084  E0BFFC17    ldw r2, -16(fp)
00000088  100B883A    mov r5, r2
0000008C  8809883A    mov r4, r17
00000090  IL_0000002C:
00000090  1025883A    mov r18, r2
00000094  00000000    call 0 R # System.String.get_Chars()  (00000094:1088:1)
00000098  10BFFFCC    andi r2, r2, 65535
0000009C  IL_00000032:
0000009C  E0FFFE17    ldw r3, -8(fp)
000000A0  1C89883A    add r4, r3, r18
000000A4  20800005    stb r2, +0(r4)
000000A8  00800044    addi r2, r0, +1 # movi r2, 1
000000AC  IL_00000035:
000000AC  9089883A    add r4, r18, r2
000000B0  IL_00000036:
000000B0  E13FFC15    stw r4, -16(fp)
000000B4  IL_00000037:
000000B4  E0BFFD0F    ldh r2, -12(fp)
000000B8  1025883A    mov r18, r2
000000BC  E0BFFC17    ldw r2, -16(fp)
000000C0  1027883A    mov r19, r2
000000C4  IL_00000039:
000000C4  9CBFEF16    blt r19, r18, -68 # 00000084
000000C8  00800004    addi r2, r0, +0 # movi r2, 0
000000CC  IL_0000003F:
000000CC  E0FFFE17    ldw r3, -8(fp)
000000D0  1C89883A    add r4, r3, r18
000000D4  20800005    stb r2, +0(r4)
000000D8  IL_00000042:
000000D8  8480008D    sth r18, +2(r16)
000000DC  IL_00000047:
000000DC  00000406    br +16 # 000000F0
000000E0  IL_00000048:
000000E0  00800004    addi r2, r0, +0 # movi r2, 0
000000E4  IL_0000004A:
000000E4  E0FFFE17    ldw r3, -8(fp)
000000E8  18800005    stb r2, +0(r3)
000000EC  IL_0000004D:
000000EC  8080008D    sth r2, +2(r16)
000000F0  IL_00000052:
000000F0  E7FFFB17    ldw ra, -20(fp)
000000F4  E43FFA17    ldw r16, -24(fp)
000000F8  E47FF917    ldw r17, -28(fp)
000000FC  E4BFF817    ldw r18, -32(fp)
00000100  E4FFF717    ldw r19, -36(fp)
00000104  DF000917    ldw fp, +36(sp)
00000108  DEC00A04    addi sp, sp, +40
0000010C  DEC00104    addi sp, sp, +4
00000110  F800283A    ret
# relocation table: 4 enties
00000114  0094,0440,1
00000118  0070,0458,1
0000011C  0054,0458,1
00000120  0038,1864,1

void System.Iec61131Lib.IecString80.ctor()
# size: 56
# offset: 0000746C
00000000  DEFFFF04    addi sp, sp, -4
00000004  DFC00015    stw ra, +0(sp)
00000008  DEFFFD04    addi sp, sp, -12
0000000C  DF000215    stw fp, +8(sp)
00000010  DF000204    addi fp, sp, +8
00000014  E7FFFE15    stw ra, -8(fp)
00000018  E13FFF15    stw r4, -4(fp)
0000001C  00801404    addi r2, r0, +80 # movi r2, 80
00000020  IL_00000008:
00000020  2080000D    sth r2, +0(r4)
00000024  IL_0000000D:
00000024  E7FFFE17    ldw ra, -8(fp)
00000028  DF000217    ldw fp, +8(sp)
0000002C  DEC00304    addi sp, sp, +12
00000030  DEC00104    addi sp, sp, +4
00000034  F800283A    ret

static System.Void* Eclr.Pcos.M2_1.GetMemPtr()
# size: 68
# offset: 000074B8
00000000  DEFFFF04    addi sp, sp, -4
00000004  DFC00015    stw ra, +0(sp)
00000008  DEFFFC04    addi sp, sp, -16
0000000C  DF000315    stw fp, +12(sp)
00000010  DF000304    addi fp, sp, +12
00000014  E7FFFD15    stw ra, -12(fp)
00000018  00800034    orhi r2, r0, 0 R # static TypeInfo Eclr.Pcos.M2_1 (00000018:18332:0)
0000001C  10800014    ori r2, r2, 0 # mov r2, 0
00000020  10C00104    addi r3, r2, +4
00000024  IL_00000005:
00000024  E0FFFF15    stw r3, -4(fp)
00000028  IL_00000008:
00000028  E0FFFE15    stw r3, -8(fp)
0000002C  IL_0000000B:
0000002C  E0BFFE17    ldw r2, -8(fp)
00000030  E7FFFD17    ldw ra, -12(fp)
00000034  DF000317    ldw fp, +12(sp)
00000038  DEC00404    addi sp, sp, +16
0000003C  DEC00104    addi sp, sp, +4
00000040  F800283A    ret
# relocation table: 1 enties
00000044  0018,479C,0

static System.Void* Eclr.Pcos.M1_1.GetMemPtr()
# size: 68
# offset: 00007514
00000000  DEFFFF04    addi sp, sp, -4
00000004  DFC00015    stw ra, +0(sp)
00000008  DEFFFC04    addi sp, sp, -16
0000000C  DF000315    stw fp, +12(sp)
00000010  DF000304    addi fp, sp, +12
00000014  E7FFFD15    stw ra, -12(fp)
00000018  00800034    orhi r2, r0, 0 R # static TypeInfo Eclr.Pcos.M1_1 (00000018:18344:0)
0000001C  10800014    ori r2, r2, 0 # mov r2, 0
00000020  10C00104    addi r3, r2, +4
00000024  IL_00000005:
00000024  E0FFFF15    stw r3, -4(fp)
00000028  IL_00000008:
00000028  E0FFFE15    stw r3, -8(fp)
0000002C  IL_0000000B:
0000002C  E0BFFE17    ldw r2, -8(fp)
00000030  E7FFFD17    ldw ra, -12(fp)
00000034  DF000317    ldw fp, +12(sp)
00000038  DEC00404    addi sp, sp, +16
0000003C  DEC00104    addi sp, sp, +4
00000040  F800283A    ret
# relocation table: 1 enties
00000044  0018,47A8,0

void Eclr.Pcos.Event..ctor()
# size: 52
# offset: 00007570
00000000  DEFFFF04    addi sp, sp, -4
00000004  DFC00015    stw ra, +0(sp)
00000008  DEFFFD04    addi sp, sp, -12
0000000C  DF000215    stw fp, +8(sp)
00000010  DF000204    addi fp, sp, +8
00000014  E7FFFE15    stw ra, -8(fp)
00000018  E13FFF15    stw r4, -4(fp)
0000001C  IL_00000001:
0000001C  00000000    call 0 R # Eclr.DcgNonGeneric..ctor()  (0000001C:4148:1)
00000020  IL_00000006:
00000020  E7FFFE17    ldw ra, -8(fp)
00000024  DF000217    ldw fp, +8(sp)
00000028  DEC00304    addi sp, sp, +12
0000002C  DEC00104    addi sp, sp, +4
00000030  F800283A    ret
# relocation table: 1 enties
00000034  001C,1034,1

void Eclr.Pcos.Event.Invoke()
# size: 80
# offset: 000075BC
00000000  DEFFFF04    addi sp, sp, -4
00000004  DFC00015    stw ra, +0(sp)
00000008  DEFFFC04    addi sp, sp, -16
0000000C  DF000315    stw fp, +12(sp)
00000010  DF000304    addi fp, sp, +12
00000014  E7FFFE15    stw ra, -8(fp)
00000018  E43FFD15    stw r16, -12(fp)
0000001C  E13FFF15    stw r4, -4(fp)
00000020  2021883A    mov r16, r4
00000024  80800217    ldw r2, +8(r16)
00000028  IL_00000006:
00000028  10000326    beq r2, r0, +12 # 00000038
0000002C  80800217    ldw r2, +8(r16)
00000030  1009883A    mov r4, r2
00000034  IL_0000000E:
00000034  00000000    call 0 R # System.Threading.ThreadStart.Invoke()  (00000034:1700:1)
00000038  IL_00000013:
00000038  E7FFFE17    ldw ra, -8(fp)
0000003C  E43FFD17    ldw r16, -12(fp)
00000040  DF000317    ldw fp, +12(sp)
00000044  DEC00404    addi sp, sp, +16
00000048  DEC00104    addi sp, sp, +4
0000004C  F800283A    ret
# relocation table: 1 enties
00000050  0034,06A4,1

static void Eclr.Pcos.Resource.PreCycle()
# size: 48
# offset: 00007624
00000000  DEFFFF04    addi sp, sp, -4
00000004  DFC00015    stw ra, +0(sp)
00000008  DEFFFE04    addi sp, sp, -8
0000000C  DF000115    stw fp, +4(sp)
00000010  DF000104    addi fp, sp, +4
00000014  E7FFFF15    stw ra, -4(fp)
00000018  IL_00000000:
00000018  00000000    call 0 R # Eclr.Pcos.PcosDomain.PreCycle()  (00000018:7100:1)
0000001C  IL_00000005:
0000001C  E7FFFF17    ldw ra, -4(fp)
00000020  DF000117    ldw fp, +4(sp)
00000024  DEC00204    addi sp, sp, +8
00000028  DEC00104    addi sp, sp, +4
0000002C  F800283A    ret
# relocation table: 1 enties
00000030  0018,1BBC,1

static void Eclr.Pcos.Resource.PostCycle()
# size: 48
# offset: 0000766C
00000000  DEFFFF04    addi sp, sp, -4
00000004  DFC00015    stw ra, +0(sp)
00000008  DEFFFE04    addi sp, sp, -8
0000000C  DF000115    stw fp, +4(sp)
00000010  DF000104    addi fp, sp, +4
00000014  E7FFFF15    stw ra, -4(fp)
00000018  IL_00000000:
00000018  00000000    call 0 R # Eclr.Pcos.PcosDomain.PostCycle()  (00000018:7120:1)
0000001C  IL_00000005:
0000001C  E7FFFF17    ldw ra, -4(fp)
00000020  DF000117    ldw fp, +4(sp)
00000024  DEC00204    addi sp, sp, +8
00000028  DEC00104    addi sp, sp, +4
0000002C  F800283A    ret
# relocation table: 1 enties
00000030  0018,1BD0,1

static void Eclr.Pcos.Resource.AbortProcess(Eclr.Pcos.SystemEvents)
# size: 108
# offset: 000076B4
00000000  DEFFFF04    addi sp, sp, -4
00000004  DFC00015    stw ra, +0(sp)
00000008  DEFFFC04    addi sp, sp, -16
0000000C  DF000315    stw fp, +12(sp)
00000010  DF000304    addi fp, sp, +12
00000014  E7FFFF15    stw ra, -4(fp)
00000018  E43FFE15    stw r16, -8(fp)
0000001C  E47FFD15    stw r17, -12(fp)
00000020  00800044    addi r2, r0, +1 # movi r2, 1
00000024  IL_00000001:
00000024  00C00034    orhi r3, r0, 0 R # static TypeInfo Eclr.Pcos.Resource (00000024:18364:0)
00000028  18C00014    ori r3, r3, 0 # mov r3, 0
0000002C  1880108D    sth r2, +66(r3)
00000030  01400004    addi r5, r0, +0 # movi r5, 0
00000034  IL_0000000C:
00000034  01800034    orhi r6, r0, 0 R # static TypeInfo Eclr.Pcos.M1_1 (00000034:18344:0)
00000038  31800014    ori r6, r6, 0 # mov r6, 0
0000003C  314002C5    stb r5, +11(r6)
00000040  IL_00000017:
00000040  30800285    stb r2, +10(r6)
00000044  IL_0000001D:
00000044  1821883A    mov r16, r3
00000048  3023883A    mov r17, r6
0000004C  00000000    call 0 R # Eclr.Pcos.PcosDomain.Abort()  (0000004C:7064:1)
00000050  IL_00000022:
00000050  E7FFFF17    ldw ra, -4(fp)
00000054  E43FFE17    ldw r16, -8(fp)
00000058  E47FFD17    ldw r17, -12(fp)
0000005C  DF000317    ldw fp, +12(sp)
00000060  DEC00404    addi sp, sp, +16
00000064  DEC00104    addi sp, sp, +4
00000068  F800283A    ret
# relocation table: 3 enties
0000006C  004C,1B98,1
00000070  0034,47A8,0
00000074  0024,47BC,0

static System.Void* ProConOS_eCLR.__TInfo0.GetMemPtr()
# size: 64
# offset: 00007740
00000000  DEFFFF04    addi sp, sp, -4
00000004  DFC00015    stw ra, +0(sp)
00000008  DEFFFE04    addi sp, sp, -8
0000000C  DF000115    stw fp, +4(sp)
00000010  DF000104    addi fp, sp, +4
00000014  E7FFFF15    stw ra, -4(fp)
00000018  IL_00000005:
00000018  00800034    orhi r2, r0, 0 R # static TypeInfo ProConOS_eCLR.__TInfo0 (00000018:18452:0)
0000001C  10800014    ori r2, r2, 0 # mov r2, 0
00000020  10C00104    addi r3, r2, +4
00000024  1009883A    mov r4, r2
00000028  1805883A    mov r2, r3
0000002C  E7FFFF17    ldw ra, -4(fp)
00000030  DF000117    ldw fp, +4(sp)
00000034  DEC00204    addi sp, sp, +8
00000038  DEC00104    addi sp, sp, +4
0000003C  F800283A    ret
# relocation table: 1 enties
00000040  0018,4814,0

static System.Void* ProConOS_eCLR.__TInfoDummy.GetMemPtr()
# size: 64
# offset: 00007798
00000000  DEFFFF04    addi sp, sp, -4
00000004  DFC00015    stw ra, +0(sp)
00000008  DEFFFE04    addi sp, sp, -8
0000000C  DF000115    stw fp, +4(sp)
00000010  DF000104    addi fp, sp, +4
00000014  E7FFFF15    stw ra, -4(fp)
00000018  IL_00000005:
00000018  00800034    orhi r2, r0, 0 R # static TypeInfo ProConOS_eCLR.__TInfoDummy (00000018:18588:0)
0000001C  10800014    ori r2, r2, 0 # mov r2, 0
00000020  10C00104    addi r3, r2, +4
00000024  1009883A    mov r4, r2
00000028  1805883A    mov r2, r3
0000002C  E7FFFF17    ldw ra, -4(fp)
00000030  DF000117    ldw fp, +4(sp)
00000034  DEC00204    addi sp, sp, +8
00000038  DEC00104    addi sp, sp, +4
0000003C  F800283A    ret
# relocation table: 1 enties
00000040  0018,489C,0

void ProConOS_eCLR.__STD_TSK.__Process()
# size: 80
# offset: 000077F0
00000000  DEFFFF04    addi sp, sp, -4
00000004  DFC00015    stw ra, +0(sp)
00000008  DEFFFC04    addi sp, sp, -16
0000000C  DF000315    stw fp, +12(sp)
00000010  DF000304    addi fp, sp, +12
00000014  E7FFFE15    stw ra, -8(fp)
00000018  E43FFD15    stw r16, -12(fp)
0000001C  E13FFF15    stw r4, -4(fp)
00000020  00800034    orhi r2, r0, 0 R # static TypeInfo ProConOS_eCLR.__STD_TSK (00000020:19140:0)
00000024  10800014    ori r2, r2, 0 # mov r2, 0
00000028  10C00217    ldw r3, +8(r2)
0000002C  1809883A    mov r4, r3
00000030  IL_00000005:
00000030  1021883A    mov r16, r2
00000034  00000000    call 0 R # ProConOS_eCLR.Main@Main.__Process()  (00000034:16600:1)
00000038  IL_0000000A:
00000038  E7FFFE17    ldw ra, -8(fp)
0000003C  E43FFD17    ldw r16, -12(fp)
00000040  DF000317    ldw fp, +12(sp)
00000044  DEC00404    addi sp, sp, +16
00000048  DEC00104    addi sp, sp, +4
0000004C  F800283A    ret
# relocation table: 2 enties
00000050  0034,40D8,1
00000054  0020,4AC4,0

void ProConOS_eCLR.Main@Main.__Process()
# size: 276
# offset: 0000785C
00000000  DEFFFF04    addi sp, sp, -4
00000004  DFC00015    stw ra, +0(sp)
00000008  DEFFFD04    addi sp, sp, -12
0000000C  DF000215    stw fp, +8(sp)
00000010  DF000204    addi fp, sp, +8
00000014  E7FFFE15    stw ra, -8(fp)
00000018  E13FFF15    stw r4, -4(fp)
0000001C  00800034    orhi r2, r0, 0 R # static TypeInfo ProConOS_eCLR.ResGlobalVars (0000001C:18764:0)
00000020  10800014    ori r2, r2, 0 # mov r2, 0
00000024  10C04E17    ldw r3, +312(r2)
00000028  19400007    ldb r5, +0(r3)
0000002C  11804217    ldw r6, +264(r2)
00000030  31C00007    ldb r7, +0(r6)
00000034  IL_0000000D:
00000034  29CA703A    and r5, r5, r7
00000038  IL_0000000E:
00000038  21400145    stb r5, +5(r4)
0000003C  19400007    ldb r5, +0(r3)
00000040  11804317    ldw r6, +268(r2)
00000044  31C00007    ldb r7, +0(r6)
00000048  IL_00000020:
00000048  29CA703A    and r5, r5, r7
0000004C  IL_00000021:
0000004C  21400185    stb r5, +6(r4)
00000050  19400007    ldb r5, +0(r3)
00000054  11804417    ldw r6, +272(r2)
00000058  31C00007    ldb r7, +0(r6)
0000005C  IL_00000033:
0000005C  29CA703A    and r5, r5, r7
00000060  IL_00000034:
00000060  21400105    stb r5, +4(r4)
00000064  19400007    ldb r5, +0(r3)
00000068  11803F17    ldw r6, +252(r2)
0000006C  31C00007    ldb r7, +0(r6)
00000070  IL_00000046:
00000070  29CA703A    and r5, r5, r7
00000074  IL_00000047:
00000074  214002C5    stb r5, +11(r4)
00000078  19400007    ldb r5, +0(r3)
0000007C  11804017    ldw r6, +256(r2)
00000080  31C00007    ldb r7, +0(r6)
00000084  IL_00000059:
00000084  29CA703A    and r5, r5, r7
00000088  IL_0000005A:
00000088  21400305    stb r5, +12(r4)
0000008C  19400007    ldb r5, +0(r3)
00000090  11804117    ldw r6, +260(r2)
00000094  31C00007    ldb r7, +0(r6)
00000098  IL_0000006C:
00000098  29CA703A    and r5, r5, r7
0000009C  IL_0000006D:
0000009C  21400345    stb r5, +13(r4)
000000A0  19400007    ldb r5, +0(r3)
000000A4  218001C3    ldbu r6, +7(r4)
000000A8  IL_00000083:
000000A8  298A703A    and r5, r5, r6
000000AC  IL_00000084:
000000AC  11804517    ldw r6, +276(r2)
000000B0  31400005    stb r5, +0(r6)
000000B4  19400007    ldb r5, +0(r3)
000000B8  21800203    ldbu r6, +8(r4)
000000BC  IL_00000096:
000000BC  298A703A    and r5, r5, r6
000000C0  IL_00000097:
000000C0  11804617    ldw r6, +280(r2)
000000C4  31400005    stb r5, +0(r6)
000000C8  19400007    ldb r5, +0(r3)
000000CC  21800243    ldbu r6, +9(r4)
000000D0  IL_000000A9:
000000D0  298A703A    and r5, r5, r6
000000D4  IL_000000AA:
000000D4  11804717    ldw r6, +284(r2)
000000D8  31400005    stb r5, +0(r6)
000000DC  19400007    ldb r5, +0(r3)
000000E0  20C00283    ldbu r3, +10(r4)
000000E4  IL_000000BC:
000000E4  28CA703A    and r5, r5, r3
000000E8  IL_000000BD:
000000E8  10C04817    ldw r3, +288(r2)
000000EC  19400005    stb r5, +0(r3)
000000F0  10C0018B    ldhu r3, +6(r2)
000000F4  IL_000000C5:
000000F4  20C0040D    sth r3, +16(r4)
000000F8  10C0020B    ldhu r3, +8(r2)
000000FC  IL_000000D1:
000000FC  20C0038D    sth r3, +14(r4)
00000100  IL_000000D6:
00000100  E7FFFE17    ldw ra, -8(fp)
00000104  DF000217    ldw fp, +8(sp)
00000108  DEC00304    addi sp, sp, +12
0000010C  DEC00104    addi sp, sp, +4
00000110  F800283A    ret
# relocation table: 1 enties
00000114  001C,494C,0
